	.text
	.intel_syntax noprefix
	.file	"fractions.67a2e7a6-cgu.0"
	.section	".text._ZN42_$LT$$RF$T$u20$as$u20$core..fmt..Debug$GT$3fmt17h97d18b71227da53dE","ax",@progbits
	.p2align	4, 0x90
	.type	_ZN42_$LT$$RF$T$u20$as$u20$core..fmt..Debug$GT$3fmt17h97d18b71227da53dE,@function
_ZN42_$LT$$RF$T$u20$as$u20$core..fmt..Debug$GT$3fmt17h97d18b71227da53dE:
.Lfunc_begin0:
	.file	1 "/home/bexx/.rustup/toolchains/stable-x86_64-unknown-linux-gnu/lib/rustlib/src/rust/library/core/src/fmt/mod.rs"
	.loc	1 2010 0
	.cfi_startproc
	push	r14
	.cfi_def_cfa_offset 16
	push	rbx
	.cfi_def_cfa_offset 24
	push	rax
	.cfi_def_cfa_offset 32
	.cfi_offset rbx, -24
	.cfi_offset r14, -16
	mov	rbx, rsi
.Ltmp0:
	.loc	1 2010 71 prologue_end
	mov	r14, qword ptr [rdi]
.Ltmp1:
	.file	2 "/home/bexx/.rustup/toolchains/stable-x86_64-unknown-linux-gnu/lib/rustlib/src/rust/library/core/src/fmt/num.rs"
	.loc	2 186 20
	mov	rdi, rsi
.Ltmp2:
	call	qword ptr [rip + _ZN4core3fmt9Formatter15debug_lower_hex17hcc2bc564374e2deaE@GOTPCREL]
	.loc	2 186 17 is_stmt 0
	test	al, al
	je	.LBB0_1
.Ltmp3:
	.loc	2 187 21 is_stmt 1
	mov	rdi, r14
	mov	rsi, rbx
	add	rsp, 8
	.cfi_def_cfa_offset 24
	pop	rbx
.Ltmp4:
	.cfi_def_cfa_offset 16
	pop	r14
.Ltmp5:
	.cfi_def_cfa_offset 8
	jmp	qword ptr [rip + _ZN4core3fmt3num53_$LT$impl$u20$core..fmt..LowerHex$u20$for$u20$i32$GT$3fmt17h0d263197e058f4dfE@GOTPCREL]
.Ltmp6:
.LBB0_1:
	.cfi_def_cfa_offset 32
	.loc	2 188 27
	mov	rdi, rbx
	call	qword ptr [rip + _ZN4core3fmt9Formatter15debug_upper_hex17h3297ae4ffba307c6E@GOTPCREL]
	.loc	2 189 21
	mov	rdi, r14
	mov	rsi, rbx
	add	rsp, 8
	.loc	2 188 24
	test	al, al
	je	.LBB0_2
.Ltmp7:
	.cfi_def_cfa_offset 24
	.loc	2 189 21
	pop	rbx
.Ltmp8:
	.cfi_def_cfa_offset 16
	pop	r14
.Ltmp9:
	.cfi_def_cfa_offset 8
	jmp	qword ptr [rip + _ZN4core3fmt3num53_$LT$impl$u20$core..fmt..UpperHex$u20$for$u20$i32$GT$3fmt17h3cdf647915f4dc03E@GOTPCREL]
.Ltmp10:
.LBB0_2:
	.cfi_def_cfa_offset 32
	.cfi_def_cfa_offset 24
	.loc	2 191 21
	pop	rbx
.Ltmp11:
	.cfi_def_cfa_offset 16
	pop	r14
.Ltmp12:
	.cfi_def_cfa_offset 8
	jmp	qword ptr [rip + _ZN4core3fmt3num3imp52_$LT$impl$u20$core..fmt..Display$u20$for$u20$i32$GT$3fmt17h8a5a214583ee170dE@GOTPCREL]
.Ltmp13:
.Lfunc_end0:
	.size	_ZN42_$LT$$RF$T$u20$as$u20$core..fmt..Debug$GT$3fmt17h97d18b71227da53dE, .Lfunc_end0-_ZN42_$LT$$RF$T$u20$as$u20$core..fmt..Debug$GT$3fmt17h97d18b71227da53dE
	.cfi_endproc

	.section	".text._ZN4core3ptr28drop_in_place$LT$$RF$i32$GT$17hb3d527d0fdf24842E","ax",@progbits
	.p2align	4, 0x90
	.type	_ZN4core3ptr28drop_in_place$LT$$RF$i32$GT$17hb3d527d0fdf24842E,@function
_ZN4core3ptr28drop_in_place$LT$$RF$i32$GT$17hb3d527d0fdf24842E:
.Lfunc_begin1:
	.file	3 "/home/bexx/.rustup/toolchains/stable-x86_64-unknown-linux-gnu/lib/rustlib/src/rust/library/core/src/ptr/mod.rs"
	.loc	3 187 0
	.cfi_startproc
	.loc	3 187 1 prologue_end
	ret
.Ltmp14:
.Lfunc_end1:
	.size	_ZN4core3ptr28drop_in_place$LT$$RF$i32$GT$17hb3d527d0fdf24842E, .Lfunc_end1-_ZN4core3ptr28drop_in_place$LT$$RF$i32$GT$17hb3d527d0fdf24842E
	.cfi_endproc

	.section	".text._ZN48_$LT$i32$u20$as$u20$fractions..AbsoluteValue$GT$7abs_val17hcc401eaf841a449dE","ax",@progbits
	.globl	_ZN48_$LT$i32$u20$as$u20$fractions..AbsoluteValue$GT$7abs_val17hcc401eaf841a449dE
	.p2align	4, 0x90
	.type	_ZN48_$LT$i32$u20$as$u20$fractions..AbsoluteValue$GT$7abs_val17hcc401eaf841a449dE,@function
_ZN48_$LT$i32$u20$as$u20$fractions..AbsoluteValue$GT$7abs_val17hcc401eaf841a449dE:
.Lfunc_begin2:
	.file	4 "/home/bexx/Projects/SmallRustProjects/fractions/src/lib.rs"
	.loc	4 13 0
	.cfi_startproc
	.loc	4 14 9 prologue_end
	mov	eax, edi
	neg	eax
	cmovl	eax, edi
	.loc	4 19 6
	ret
.Ltmp15:
.Lfunc_end2:
	.size	_ZN48_$LT$i32$u20$as$u20$fractions..AbsoluteValue$GT$7abs_val17hcc401eaf841a449dE, .Lfunc_end2-_ZN48_$LT$i32$u20$as$u20$fractions..AbsoluteValue$GT$7abs_val17hcc401eaf841a449dE
	.cfi_endproc

	.section	".text._ZN46_$LT$i32$u20$as$u20$fractions..CommonValue$GT$22greatest_common_factor17h29cd2da29b197999E","ax",@progbits
	.globl	_ZN46_$LT$i32$u20$as$u20$fractions..CommonValue$GT$22greatest_common_factor17h29cd2da29b197999E
	.p2align	4, 0x90
	.type	_ZN46_$LT$i32$u20$as$u20$fractions..CommonValue$GT$22greatest_common_factor17h29cd2da29b197999E,@function
_ZN46_$LT$i32$u20$as$u20$fractions..CommonValue$GT$22greatest_common_factor17h29cd2da29b197999E:
.Lfunc_begin3:
	.loc	4 23 0
	.cfi_startproc
	mov	r9d, esi
.Ltmp16:
	.loc	4 14 9 prologue_end
	mov	eax, edi
	neg	eax
	cmovl	eax, edi
.Ltmp17:
	.loc	4 14 9 is_stmt 0
	neg	esi
	cmovl	esi, r9d
.Ltmp18:
	.loc	4 24 26 is_stmt 1
	cmp	eax, esi
	.loc	4 24 23 is_stmt 0
	cmovg	esi, eax
	mov	r8d, 1
.Ltmp19:
	.file	5 "/home/bexx/.rustup/toolchains/stable-x86_64-unknown-linux-gnu/lib/rustlib/src/rust/library/core/src/ops/range.rs"
	.loc	5 540 9 is_stmt 1
	test	esi, esi
.Ltmp20:
	.file	6 "/home/bexx/.rustup/toolchains/stable-x86_64-unknown-linux-gnu/lib/rustlib/src/rust/library/core/src/iter/range.rs"
	.loc	6 775 9
	jle	.LBB3_20
.Ltmp21:
	.loc	6 0 9 is_stmt 0
	cmp	edi, -2147483648
	.loc	6 775 9
	je	.LBB3_2
.Ltmp22:
	.loc	6 0 9
	cmp	r9d, -2147483648
	.loc	6 775 9
	je	.LBB3_11
.Ltmp23:
	.p2align	4, 0x90
.LBB3_15:
	.file	7 "/home/bexx/.rustup/toolchains/stable-x86_64-unknown-linux-gnu/lib/rustlib/src/rust/library/core/src/cmp.rs"
	.loc	7 1259 52 is_stmt 1
	xor	ecx, ecx
	cmp	esi, 1
	setg	r10b
.Ltmp24:
	.loc	4 31 16
	mov	eax, edi
	cdq
	idiv	esi
	test	edx, edx
	jne	.LBB3_16
.Ltmp25:
	.loc	4 31 30 is_stmt 0
	mov	eax, r9d
	cdq
	idiv	esi
	.loc	4 31 16
	test	edx, edx
	je	.LBB3_19
.Ltmp26:
.LBB3_16:
	.loc	7 1259 52 is_stmt 1
	cmp	esi, 2
.Ltmp27:
	.loc	6 775 9
	jl	.LBB3_20
.Ltmp28:
	.loc	6 0 0 is_stmt 0
	mov	cl, r10b
	sub	esi, ecx
.Ltmp29:
	.loc	6 775 9
	test	esi, esi
	jg	.LBB3_15
.Ltmp30:
.LBB3_20:
	.loc	4 36 6 is_stmt 1
	mov	eax, r8d
	ret
.LBB3_14:
.Ltmp31:
	.loc	6 0 0 is_stmt 0
	mov	cl, r9b
	sub	esi, ecx
.Ltmp32:
	.loc	6 775 9 is_stmt 1
	test	esi, esi
	jle	.LBB3_20
.Ltmp33:
.LBB3_11:
	.loc	7 1259 52
	xor	ecx, ecx
	cmp	esi, 1
	setg	r9b
.Ltmp34:
	.loc	4 31 16
	mov	eax, edi
	cdq
	idiv	esi
	test	edx, edx
	jne	.LBB3_13
.Ltmp35:
	.loc	4 31 30 is_stmt 0
	mov	eax, -2147483648
	xor	edx, edx
	div	esi
	.loc	4 31 16
	test	edx, edx
	je	.LBB3_19
.Ltmp36:
.LBB3_13:
	.loc	7 1259 52 is_stmt 1
	cmp	esi, 2
.Ltmp37:
	.loc	7 0 52 is_stmt 0
	jge	.LBB3_14
	jmp	.LBB3_20
.Ltmp38:
.LBB3_2:
	cmp	r9d, -2147483648
	.loc	6 775 9 is_stmt 1
	je	.LBB3_3
.Ltmp39:
.LBB3_6:
	.loc	7 1259 52
	xor	edi, edi
.Ltmp40:
	cmp	esi, 1
	setg	cl
.Ltmp41:
	.loc	4 31 16
	mov	eax, -2147483648
	xor	edx, edx
	div	esi
	test	edx, edx
	jne	.LBB3_8
.Ltmp42:
	.loc	4 31 30 is_stmt 0
	mov	eax, r9d
	cdq
	idiv	esi
	.loc	4 31 16
	test	edx, edx
	je	.LBB3_19
.Ltmp43:
.LBB3_8:
	.loc	7 1259 52 is_stmt 1
	cmp	esi, 2
.Ltmp44:
	.loc	6 775 9
	jl	.LBB3_20
.Ltmp45:
	.loc	6 0 0 is_stmt 0
	mov	dil, cl
	sub	esi, edi
.Ltmp46:
	.loc	6 775 9
	test	esi, esi
	jg	.LBB3_6
	jmp	.LBB3_20
.Ltmp47:
.LBB3_4:
	.loc	7 1259 52 is_stmt 1
	cmp	esi, 2
.Ltmp48:
	.loc	6 775 9
	jl	.LBB3_20
.Ltmp49:
	.loc	6 0 0 is_stmt 0
	mov	cl, dil
	sub	esi, ecx
.Ltmp50:
	.loc	6 775 9
	test	esi, esi
	jle	.LBB3_20
.Ltmp51:
.LBB3_3:
	.loc	7 1259 52 is_stmt 1
	xor	ecx, ecx
	cmp	esi, 1
	setg	dil
.Ltmp52:
	.loc	4 31 16
	mov	eax, -2147483648
	xor	edx, edx
	div	esi
	test	edx, edx
	jne	.LBB3_4
.Ltmp53:
.LBB3_19:
	.loc	4 0 0 is_stmt 0
	mov	r8d, esi
.Ltmp54:
	.loc	4 36 6 is_stmt 1
	mov	eax, r8d
	ret
.Ltmp55:
.Lfunc_end3:
	.size	_ZN46_$LT$i32$u20$as$u20$fractions..CommonValue$GT$22greatest_common_factor17h29cd2da29b197999E, .Lfunc_end3-_ZN46_$LT$i32$u20$as$u20$fractions..CommonValue$GT$22greatest_common_factor17h29cd2da29b197999E
	.cfi_endproc
	.file	8 "/home/bexx/.rustup/toolchains/stable-x86_64-unknown-linux-gnu/lib/rustlib/src/rust/library/core/src/iter/adapters/rev.rs"

	.section	".text._ZN46_$LT$i32$u20$as$u20$fractions..CommonValue$GT$21least_common_multiple17h1b0f4ac8414748f2E","ax",@progbits
	.globl	_ZN46_$LT$i32$u20$as$u20$fractions..CommonValue$GT$21least_common_multiple17h1b0f4ac8414748f2E
	.p2align	4, 0x90
	.type	_ZN46_$LT$i32$u20$as$u20$fractions..CommonValue$GT$21least_common_multiple17h1b0f4ac8414748f2E,@function
_ZN46_$LT$i32$u20$as$u20$fractions..CommonValue$GT$21least_common_multiple17h1b0f4ac8414748f2E:
.Lfunc_begin4:
	.loc	4 38 0
	.cfi_startproc
	mov	r10d, esi
.Ltmp56:
	.loc	4 14 9 prologue_end
	mov	eax, edi
	neg	eax
	cmovl	eax, edi
.Ltmp57:
	.loc	4 14 9 is_stmt 0
	neg	esi
	cmovl	esi, r10d
.Ltmp58:
	.loc	4 24 26 is_stmt 1
	cmp	eax, esi
	.loc	4 24 23 is_stmt 0
	cmovg	esi, eax
	mov	r8d, 1
.Ltmp59:
	.loc	5 540 9 is_stmt 1
	test	esi, esi
.Ltmp60:
	.loc	6 775 9
	jle	.LBB4_20
.Ltmp61:
	.loc	6 0 9 is_stmt 0
	cmp	edi, -2147483648
	.loc	6 775 9
	je	.LBB4_2
.Ltmp62:
	.loc	6 0 9
	cmp	r10d, -2147483648
	.loc	6 775 9
	je	.LBB4_11
.Ltmp63:
	.p2align	4, 0x90
.LBB4_15:
	.loc	7 1259 52 is_stmt 1
	xor	ecx, ecx
	cmp	esi, 1
	setg	r9b
.Ltmp64:
	.loc	4 31 16
	mov	eax, edi
	cdq
	idiv	esi
	test	edx, edx
	jne	.LBB4_16
.Ltmp65:
	.loc	4 31 30 is_stmt 0
	mov	eax, r10d
	cdq
	idiv	esi
	.loc	4 31 16
	test	edx, edx
	je	.LBB4_19
.Ltmp66:
.LBB4_16:
	.loc	7 1259 52 is_stmt 1
	cmp	esi, 2
.Ltmp67:
	.loc	6 775 9
	jl	.LBB4_20
.Ltmp68:
	.loc	6 0 0 is_stmt 0
	mov	cl, r9b
	sub	esi, ecx
.Ltmp69:
	.loc	6 775 9
	test	esi, esi
	jg	.LBB4_15
	jmp	.LBB4_20
.Ltmp70:
.LBB4_14:
	.loc	6 0 0
	mov	r9b, cl
	sub	esi, r9d
.Ltmp71:
	.loc	6 775 9
	test	esi, esi
	jle	.LBB4_20
.Ltmp72:
.LBB4_11:
	.loc	7 1259 52 is_stmt 1
	xor	r9d, r9d
	cmp	esi, 1
	setg	cl
.Ltmp73:
	.loc	4 31 16
	mov	eax, edi
	cdq
	idiv	esi
	test	edx, edx
	jne	.LBB4_13
.Ltmp74:
	.loc	4 31 30 is_stmt 0
	mov	eax, -2147483648
	xor	edx, edx
	div	esi
	.loc	4 31 16
	test	edx, edx
	je	.LBB4_19
.Ltmp75:
.LBB4_13:
	.loc	7 1259 52 is_stmt 1
	cmp	esi, 2
.Ltmp76:
	.loc	7 0 52 is_stmt 0
	jge	.LBB4_14
	jmp	.LBB4_20
.Ltmp77:
.LBB4_2:
	cmp	r10d, -2147483648
	.loc	6 775 9 is_stmt 1
	je	.LBB4_3
.Ltmp78:
.LBB4_6:
	.loc	7 1259 52
	xor	r9d, r9d
	cmp	esi, 1
	setg	cl
.Ltmp79:
	.loc	4 31 16
	mov	eax, -2147483648
	xor	edx, edx
	div	esi
	test	edx, edx
	jne	.LBB4_8
.Ltmp80:
	.loc	4 31 30 is_stmt 0
	mov	eax, r10d
	cdq
	idiv	esi
	.loc	4 31 16
	test	edx, edx
	je	.LBB4_19
.Ltmp81:
.LBB4_8:
	.loc	7 1259 52 is_stmt 1
	cmp	esi, 2
.Ltmp82:
	.loc	6 775 9
	jl	.LBB4_20
.Ltmp83:
	.loc	6 0 0 is_stmt 0
	mov	r9b, cl
	sub	esi, r9d
.Ltmp84:
	.loc	6 775 9
	test	esi, esi
	jg	.LBB4_6
	jmp	.LBB4_20
.Ltmp85:
.LBB4_4:
	.loc	7 1259 52 is_stmt 1
	cmp	esi, 2
.Ltmp86:
	.loc	6 775 9
	jl	.LBB4_20
.Ltmp87:
	.loc	6 0 0 is_stmt 0
	mov	cl, r9b
	sub	esi, ecx
.Ltmp88:
	.loc	6 775 9
	test	esi, esi
	jle	.LBB4_20
.Ltmp89:
.LBB4_3:
	.loc	7 1259 52 is_stmt 1
	xor	ecx, ecx
	cmp	esi, 1
	setg	r9b
.Ltmp90:
	.loc	4 31 16
	mov	eax, -2147483648
	xor	edx, edx
	div	esi
	test	edx, edx
	jne	.LBB4_4
.Ltmp91:
.LBB4_19:
	.loc	4 0 0 is_stmt 0
	mov	r8d, esi
.Ltmp92:
.LBB4_20:
	.loc	4 40 22 is_stmt 1
	imul	r10d, edi
.Ltmp93:
	mov	eax, r10d
	cdq
	idiv	r8d
.Ltmp94:
	.loc	4 14 9
	mov	ecx, eax
	neg	ecx
	cmovl	ecx, eax
.Ltmp95:
	.loc	4 41 6
	mov	eax, ecx
.Ltmp96:
	ret
.Ltmp97:
.Lfunc_end4:
	.size	_ZN46_$LT$i32$u20$as$u20$fractions..CommonValue$GT$21least_common_multiple17h1b0f4ac8414748f2E, .Lfunc_end4-_ZN46_$LT$i32$u20$as$u20$fractions..CommonValue$GT$21least_common_multiple17h1b0f4ac8414748f2E
	.cfi_endproc

	.section	.text._ZN9fractions8Fraction3new17h6e8330e89f93c79eE,"ax",@progbits
	.globl	_ZN9fractions8Fraction3new17h6e8330e89f93c79eE
	.p2align	4, 0x90
	.type	_ZN9fractions8Fraction3new17h6e8330e89f93c79eE,@function
_ZN9fractions8Fraction3new17h6e8330e89f93c79eE:
.Lfunc_begin5:
	.loc	4 51 0
	.cfi_startproc
	.loc	4 52 9 prologue_end
	mov	eax, edi
	neg	eax
	mov	edx, esi
	neg	edx
	cmovl	edx, esi
	.loc	4 52 12 is_stmt 0
	test	esi, esi
	.loc	4 52 9
	cmovns	eax, edi
	.loc	4 63 6 is_stmt 1
	ret
.Ltmp98:
.Lfunc_end5:
	.size	_ZN9fractions8Fraction3new17h6e8330e89f93c79eE, .Lfunc_end5-_ZN9fractions8Fraction3new17h6e8330e89f93c79eE
	.cfi_endproc

	.section	.text._ZN9fractions8Fraction11reduce_form17h71eb62d0ad04c55fE,"ax",@progbits
	.globl	_ZN9fractions8Fraction11reduce_form17h71eb62d0ad04c55fE
	.p2align	4, 0x90
	.type	_ZN9fractions8Fraction11reduce_form17h71eb62d0ad04c55fE,@function
_ZN9fractions8Fraction11reduce_form17h71eb62d0ad04c55fE:
.Lfunc_begin6:
	.loc	4 65 0
	.cfi_startproc
	.loc	4 66 12 prologue_end
	mov	r11d, dword ptr [rdi]
	mov	r8d, 1
	.loc	4 66 9 is_stmt 0
	mov	r9d, 1
	test	r11d, r11d
	je	.LBB6_2
.Ltmp99:
	.loc	4 0 9
	mov	r9d, dword ptr [rdi + 4]
.Ltmp100:
.LBB6_2:
	.loc	4 14 9 is_stmt 1
	mov	eax, r11d
	neg	eax
	cmovl	eax, r11d
.Ltmp101:
	.loc	4 14 9 is_stmt 0
	mov	ecx, r9d
	neg	ecx
	cmovl	ecx, r9d
.Ltmp102:
	.loc	4 24 26 is_stmt 1
	cmp	eax, ecx
	.loc	4 24 23 is_stmt 0
	cmovg	ecx, eax
.Ltmp103:
	.loc	5 540 9 is_stmt 1
	test	ecx, ecx
.Ltmp104:
	.loc	6 775 9
	jle	.LBB6_22
.Ltmp105:
	.loc	6 0 9 is_stmt 0
	cmp	r11d, -2147483648
	.loc	6 775 9
	je	.LBB6_4
.Ltmp106:
	.loc	6 0 9
	cmp	r9d, -2147483648
	.loc	6 775 9
	je	.LBB6_13
.Ltmp107:
	.p2align	4, 0x90
.LBB6_17:
	.loc	7 1259 52 is_stmt 1
	xor	esi, esi
	cmp	ecx, 1
	setg	r10b
.Ltmp108:
	.loc	4 31 16
	mov	eax, r11d
	cdq
	idiv	ecx
	test	edx, edx
	jne	.LBB6_18
.Ltmp109:
	.loc	4 31 30 is_stmt 0
	mov	eax, r9d
	cdq
	idiv	ecx
	.loc	4 31 16
	test	edx, edx
	je	.LBB6_21
.Ltmp110:
.LBB6_18:
	.loc	7 1259 52 is_stmt 1
	cmp	ecx, 2
.Ltmp111:
	.loc	6 775 9
	jl	.LBB6_22
.Ltmp112:
	.loc	6 0 0 is_stmt 0
	mov	sil, r10b
	sub	ecx, esi
.Ltmp113:
	.loc	6 775 9
	test	ecx, ecx
	jg	.LBB6_17
	jmp	.LBB6_22
.Ltmp114:
.LBB6_16:
	.loc	6 0 0
	mov	r10b, sil
	sub	ecx, r10d
.Ltmp115:
	.loc	6 775 9
	test	ecx, ecx
	jle	.LBB6_22
.Ltmp116:
.LBB6_13:
	.loc	7 1259 52 is_stmt 1
	xor	r10d, r10d
	cmp	ecx, 1
	setg	sil
.Ltmp117:
	.loc	4 31 16
	mov	eax, r11d
	cdq
	idiv	ecx
	test	edx, edx
	jne	.LBB6_15
.Ltmp118:
	.loc	4 31 30 is_stmt 0
	mov	eax, -2147483648
	xor	edx, edx
	div	ecx
	.loc	4 31 16
	test	edx, edx
	je	.LBB6_21
.Ltmp119:
.LBB6_15:
	.loc	7 1259 52 is_stmt 1
	cmp	ecx, 2
.Ltmp120:
	.loc	7 0 52 is_stmt 0
	jge	.LBB6_16
	jmp	.LBB6_22
.Ltmp121:
.LBB6_4:
	cmp	r9d, -2147483648
	.loc	6 775 9 is_stmt 1
	je	.LBB6_5
.Ltmp122:
.LBB6_8:
	.loc	7 1259 52
	xor	r10d, r10d
	cmp	ecx, 1
	setg	sil
.Ltmp123:
	.loc	4 31 16
	mov	eax, -2147483648
	xor	edx, edx
	div	ecx
	test	edx, edx
	jne	.LBB6_10
.Ltmp124:
	.loc	4 31 30 is_stmt 0
	mov	eax, r9d
	cdq
	idiv	ecx
	.loc	4 31 16
	test	edx, edx
	je	.LBB6_21
.Ltmp125:
.LBB6_10:
	.loc	7 1259 52 is_stmt 1
	cmp	ecx, 2
.Ltmp126:
	.loc	6 775 9
	jl	.LBB6_22
.Ltmp127:
	.loc	6 0 0 is_stmt 0
	mov	r10b, sil
	sub	ecx, r10d
.Ltmp128:
	.loc	6 775 9
	test	ecx, ecx
	jg	.LBB6_8
	jmp	.LBB6_22
.Ltmp129:
.LBB6_6:
	.loc	7 1259 52 is_stmt 1
	cmp	ecx, 2
.Ltmp130:
	.loc	6 775 9
	jl	.LBB6_22
.Ltmp131:
	.loc	6 0 0 is_stmt 0
	mov	sil, r10b
	sub	ecx, esi
.Ltmp132:
	.loc	6 775 9
	test	ecx, ecx
	jle	.LBB6_22
.Ltmp133:
.LBB6_5:
	.loc	7 1259 52 is_stmt 1
	xor	esi, esi
	cmp	ecx, 1
	setg	r10b
.Ltmp134:
	.loc	4 31 16
	mov	eax, -2147483648
	xor	edx, edx
	div	ecx
	test	edx, edx
	jne	.LBB6_6
.Ltmp135:
.LBB6_21:
	.loc	4 0 0 is_stmt 0
	mov	r8d, ecx
.Ltmp136:
.LBB6_22:
	.loc	4 72 9 is_stmt 1
	mov	eax, r11d
	cdq
	idiv	r8d
	mov	dword ptr [rdi], eax
	.loc	4 73 9
	mov	eax, r9d
	cdq
	idiv	r8d
	mov	dword ptr [rdi + 4], eax
.Ltmp137:
	.loc	4 74 6
	ret
.Ltmp138:
.Lfunc_end6:
	.size	_ZN9fractions8Fraction11reduce_form17h71eb62d0ad04c55fE, .Lfunc_end6-_ZN9fractions8Fraction11reduce_form17h71eb62d0ad04c55fE
	.cfi_endproc

	.section	.text._ZN9fractions8Fraction3add17h6dec614af4ab4530E,"ax",@progbits
	.globl	_ZN9fractions8Fraction3add17h6dec614af4ab4530E
	.p2align	4, 0x90
	.type	_ZN9fractions8Fraction3add17h6dec614af4ab4530E,@function
_ZN9fractions8Fraction3add17h6dec614af4ab4530E:
.Lfunc_begin7:
	.loc	4 76 0
	.cfi_startproc
	push	rbx
	.cfi_def_cfa_offset 16
	.cfi_offset rbx, -16
	.loc	4 77 46 prologue_end
	mov	r9d, dword ptr [rdi + 4]
	.loc	4 77 64 is_stmt 0
	mov	r8d, dword ptr [rsi + 4]
.Ltmp139:
	.loc	4 14 9 is_stmt 1
	mov	eax, r9d
	neg	eax
	cmovl	eax, r9d
.Ltmp140:
	.loc	4 14 9 is_stmt 0
	mov	ebx, r8d
	neg	ebx
	cmovl	ebx, r8d
.Ltmp141:
	.loc	4 24 26 is_stmt 1
	cmp	eax, ebx
	.loc	4 24 23 is_stmt 0
	cmovg	ebx, eax
	mov	r10d, 1
.Ltmp142:
	.loc	5 540 9 is_stmt 1
	test	ebx, ebx
.Ltmp143:
	.loc	6 775 9
	jle	.LBB7_20
.Ltmp144:
	.loc	6 0 9 is_stmt 0
	cmp	r9d, -2147483648
	.loc	6 775 9
	je	.LBB7_2
.Ltmp145:
	.loc	6 0 9
	cmp	r8d, -2147483648
	.loc	6 775 9
	je	.LBB7_11
.Ltmp146:
	.p2align	4, 0x90
.LBB7_15:
	.loc	7 1259 52 is_stmt 1
	xor	ecx, ecx
	cmp	ebx, 1
	setg	r11b
.Ltmp147:
	.loc	4 31 16
	mov	eax, r9d
	cdq
	idiv	ebx
	test	edx, edx
	jne	.LBB7_16
.Ltmp148:
	.loc	4 31 30 is_stmt 0
	mov	eax, r8d
	cdq
	idiv	ebx
	.loc	4 31 16
	test	edx, edx
	je	.LBB7_19
.Ltmp149:
.LBB7_16:
	.loc	7 1259 52 is_stmt 1
	cmp	ebx, 2
.Ltmp150:
	.loc	6 775 9
	jl	.LBB7_20
.Ltmp151:
	.loc	6 0 0 is_stmt 0
	mov	cl, r11b
	sub	ebx, ecx
.Ltmp152:
	.loc	6 775 9
	test	ebx, ebx
	jg	.LBB7_15
	jmp	.LBB7_20
.Ltmp153:
.LBB7_14:
	.loc	6 0 0
	mov	r11b, cl
	sub	ebx, r11d
.Ltmp154:
	.loc	6 775 9
	test	ebx, ebx
	jle	.LBB7_20
.Ltmp155:
.LBB7_11:
	.loc	7 1259 52 is_stmt 1
	xor	r11d, r11d
	cmp	ebx, 1
	setg	cl
.Ltmp156:
	.loc	4 31 16
	mov	eax, r9d
	cdq
	idiv	ebx
	test	edx, edx
	jne	.LBB7_13
.Ltmp157:
	.loc	4 31 30 is_stmt 0
	mov	eax, -2147483648
	xor	edx, edx
	div	ebx
	.loc	4 31 16
	test	edx, edx
	je	.LBB7_19
.Ltmp158:
.LBB7_13:
	.loc	7 1259 52 is_stmt 1
	cmp	ebx, 2
.Ltmp159:
	.loc	7 0 52 is_stmt 0
	jge	.LBB7_14
	jmp	.LBB7_20
.Ltmp160:
.LBB7_2:
	cmp	r8d, -2147483648
	.loc	6 775 9 is_stmt 1
	je	.LBB7_3
.Ltmp161:
.LBB7_6:
	.loc	7 1259 52
	xor	r11d, r11d
	cmp	ebx, 1
	setg	cl
.Ltmp162:
	.loc	4 31 16
	mov	eax, -2147483648
	xor	edx, edx
	div	ebx
	test	edx, edx
	jne	.LBB7_8
.Ltmp163:
	.loc	4 31 30 is_stmt 0
	mov	eax, r8d
	cdq
	idiv	ebx
	.loc	4 31 16
	test	edx, edx
	je	.LBB7_19
.Ltmp164:
.LBB7_8:
	.loc	7 1259 52 is_stmt 1
	cmp	ebx, 2
.Ltmp165:
	.loc	6 775 9
	jl	.LBB7_20
.Ltmp166:
	.loc	6 0 0 is_stmt 0
	mov	r11b, cl
	sub	ebx, r11d
.Ltmp167:
	.loc	6 775 9
	test	ebx, ebx
	jg	.LBB7_6
	jmp	.LBB7_20
.Ltmp168:
.LBB7_4:
	.loc	7 1259 52 is_stmt 1
	cmp	ebx, 2
.Ltmp169:
	.loc	6 775 9
	jl	.LBB7_20
.Ltmp170:
	.loc	6 0 0 is_stmt 0
	mov	cl, r11b
	sub	ebx, ecx
.Ltmp171:
	.loc	6 775 9
	test	ebx, ebx
	jle	.LBB7_20
.Ltmp172:
.LBB7_3:
	.loc	7 1259 52 is_stmt 1
	xor	ecx, ecx
	cmp	ebx, 1
	setg	r11b
.Ltmp173:
	.loc	4 31 16
	mov	eax, -2147483648
	xor	edx, edx
	div	ebx
	test	edx, edx
	jne	.LBB7_4
.Ltmp174:
.LBB7_19:
	.loc	4 0 0 is_stmt 0
	mov	r10d, ebx
.Ltmp175:
.LBB7_20:
	.loc	4 40 22 is_stmt 1
	mov	eax, r8d
	imul	eax, r9d
	cdq
	idiv	r10d
.Ltmp176:
	.loc	4 14 9
	mov	ecx, eax
	neg	ecx
	cmovl	ecx, eax
.Ltmp177:
	.loc	4 79 29
	test	r9d, r9d
	je	.LBB7_47
.Ltmp178:
	cmp	r9d, -1
	jne	.LBB7_23
.Ltmp179:
	cmp	eax, -2147483648
	je	.LBB7_49
.Ltmp180:
.LBB7_23:
	.loc	4 80 29
	test	r8d, r8d
	je	.LBB7_51
.Ltmp181:
	cmp	r8d, -1
	jne	.LBB7_26
.Ltmp182:
	cmp	eax, -2147483648
	je	.LBB7_52
.Ltmp183:
.LBB7_26:
	.loc	4 79 29
	mov	eax, ecx
	cdq
	idiv	r9d
	mov	r9d, eax
.Ltmp184:
	.loc	4 80 29
	mov	eax, ecx
	cdq
	idiv	r8d
.Ltmp185:
	.loc	4 82 25
	imul	r9d, dword ptr [rdi]
.Ltmp186:
	.loc	4 82 58 is_stmt 0
	imul	eax, dword ptr [rsi]
.Ltmp187:
	.loc	4 82 25
	add	eax, r9d
.Ltmp188:
	.loc	4 52 9 is_stmt 1
	mov	edi, ecx
.Ltmp189:
	neg	edi
	cmovl	edi, ecx
.Ltmp190:
	.loc	4 14 9
	mov	esi, eax
.Ltmp191:
	neg	esi
	mov	edx, eax
	cmovge	edx, esi
.Ltmp192:
	.loc	4 52 12
	test	ecx, ecx
	.loc	4 52 9 is_stmt 0
	cmovns	esi, eax
.Ltmp193:
	.loc	4 66 9 is_stmt 1
	test	esi, esi
.Ltmp194:
	.loc	4 0 9 is_stmt 0
	mov	r8d, 1
	.loc	4 66 9
	cmove	edi, r8d
.Ltmp195:
	.loc	4 14 9 is_stmt 1
	mov	ecx, edi
.Ltmp196:
	neg	ecx
	cmovl	ecx, edi
.Ltmp197:
	.loc	4 24 26
	cmp	edx, ecx
	.loc	4 24 23 is_stmt 0
	cmovg	ecx, edx
.Ltmp198:
	.loc	5 540 9 is_stmt 1
	test	ecx, ecx
.Ltmp199:
	.loc	6 775 9
	jle	.LBB7_46
.Ltmp200:
	.loc	6 0 9 is_stmt 0
	cmp	esi, -2147483648
	.loc	6 775 9
	je	.LBB7_28
.Ltmp201:
	.loc	6 0 9
	cmp	edi, -2147483648
	.loc	6 775 9
	je	.LBB7_37
.Ltmp202:
	.p2align	4, 0x90
.LBB7_41:
	.loc	7 1259 52 is_stmt 1
	xor	ebx, ebx
	cmp	ecx, 1
	setg	r9b
.Ltmp203:
	.loc	4 31 16
	mov	eax, esi
	cdq
	idiv	ecx
	test	edx, edx
	jne	.LBB7_42
.Ltmp204:
	.loc	4 31 30 is_stmt 0
	mov	eax, edi
	cdq
	idiv	ecx
	.loc	4 31 16
	test	edx, edx
	je	.LBB7_45
.Ltmp205:
.LBB7_42:
	.loc	7 1259 52 is_stmt 1
	cmp	ecx, 2
.Ltmp206:
	.loc	6 775 9
	jl	.LBB7_46
.Ltmp207:
	.loc	6 0 0 is_stmt 0
	mov	bl, r9b
	sub	ecx, ebx
.Ltmp208:
	.loc	6 775 9
	test	ecx, ecx
	jg	.LBB7_41
	jmp	.LBB7_46
.Ltmp209:
.LBB7_40:
	.loc	6 0 0
	mov	bl, r9b
	sub	ecx, ebx
.Ltmp210:
	.loc	6 775 9
	test	ecx, ecx
	jle	.LBB7_46
.Ltmp211:
.LBB7_37:
	.loc	7 1259 52 is_stmt 1
	xor	ebx, ebx
	cmp	ecx, 1
	setg	r9b
.Ltmp212:
	.loc	4 31 16
	mov	eax, esi
	cdq
	idiv	ecx
	test	edx, edx
	jne	.LBB7_39
.Ltmp213:
	.loc	4 31 30 is_stmt 0
	mov	eax, -2147483648
	xor	edx, edx
	div	ecx
	.loc	4 31 16
	test	edx, edx
	je	.LBB7_45
.Ltmp214:
.LBB7_39:
	.loc	7 1259 52 is_stmt 1
	cmp	ecx, 2
.Ltmp215:
	.loc	7 0 52 is_stmt 0
	jge	.LBB7_40
	jmp	.LBB7_46
.Ltmp216:
.LBB7_47:
	.loc	4 79 29 is_stmt 1
	lea	rdi, [rip + str.2]
.Ltmp217:
	lea	rdx, [rip + .L__unnamed_2]
	jmp	.LBB7_48
.Ltmp218:
.LBB7_49:
	lea	rdi, [rip + str.3]
.Ltmp219:
	lea	rdx, [rip + .L__unnamed_2]
	jmp	.LBB7_50
.Ltmp220:
.LBB7_51:
	.loc	4 80 29
	lea	rdi, [rip + str.2]
.Ltmp221:
	lea	rdx, [rip + .L__unnamed_3]
.Ltmp222:
.LBB7_48:
	.loc	4 0 0 is_stmt 0
	mov	esi, 25
.Ltmp223:
	call	qword ptr [rip + _ZN4core9panicking5panic17h10ab123a4b13cc79E@GOTPCREL]
.Ltmp224:
	ud2
.Ltmp225:
.LBB7_52:
	.loc	4 80 29
	lea	rdi, [rip + str.3]
.Ltmp226:
	lea	rdx, [rip + .L__unnamed_3]
.Ltmp227:
.LBB7_50:
	.loc	4 0 0
	mov	esi, 31
.Ltmp228:
	call	qword ptr [rip + _ZN4core9panicking5panic17h10ab123a4b13cc79E@GOTPCREL]
.Ltmp229:
	ud2
.Ltmp230:
.LBB7_28:
	cmp	edi, -2147483648
.Ltmp231:
	.loc	6 775 9 is_stmt 1
	je	.LBB7_29
.Ltmp232:
.LBB7_32:
	.loc	7 1259 52
	xor	ebx, ebx
	cmp	ecx, 1
	setg	r9b
.Ltmp233:
	.loc	4 31 16
	mov	eax, -2147483648
	xor	edx, edx
	div	ecx
	test	edx, edx
	jne	.LBB7_34
.Ltmp234:
	.loc	4 31 30 is_stmt 0
	mov	eax, edi
	cdq
	idiv	ecx
	.loc	4 31 16
	test	edx, edx
	je	.LBB7_45
.Ltmp235:
.LBB7_34:
	.loc	7 1259 52 is_stmt 1
	cmp	ecx, 2
.Ltmp236:
	.loc	6 775 9
	jl	.LBB7_46
.Ltmp237:
	.loc	6 0 0 is_stmt 0
	mov	bl, r9b
	sub	ecx, ebx
.Ltmp238:
	.loc	6 775 9
	test	ecx, ecx
	jg	.LBB7_32
	jmp	.LBB7_46
.Ltmp239:
.LBB7_30:
	.loc	7 1259 52 is_stmt 1
	cmp	ecx, 2
.Ltmp240:
	.loc	6 775 9
	jl	.LBB7_46
.Ltmp241:
	.loc	6 0 0 is_stmt 0
	mov	bl, r9b
	sub	ecx, ebx
.Ltmp242:
	.loc	6 775 9
	test	ecx, ecx
	jle	.LBB7_46
.Ltmp243:
.LBB7_29:
	.loc	7 1259 52 is_stmt 1
	xor	ebx, ebx
	cmp	ecx, 1
	setg	r9b
.Ltmp244:
	.loc	4 31 16
	mov	eax, -2147483648
	xor	edx, edx
	div	ecx
	test	edx, edx
	jne	.LBB7_30
.Ltmp245:
.LBB7_45:
	.loc	4 0 0 is_stmt 0
	mov	r8d, ecx
.Ltmp246:
.LBB7_46:
	.loc	4 72 9 is_stmt 1
	mov	eax, esi
	cdq
	idiv	r8d
	mov	ecx, eax
.Ltmp247:
	.loc	4 73 9
	mov	eax, edi
	cdq
	idiv	r8d
	mov	edx, eax
.Ltmp248:
	.loc	4 87 6
	mov	eax, ecx
	pop	rbx
	.cfi_def_cfa_offset 8
	ret
.Ltmp249:
.Lfunc_end7:
	.size	_ZN9fractions8Fraction3add17h6dec614af4ab4530E, .Lfunc_end7-_ZN9fractions8Fraction3add17h6dec614af4ab4530E
	.cfi_endproc

	.section	.text._ZN9fractions8Fraction3sub17h80d2a905cd9d14feE,"ax",@progbits
	.globl	_ZN9fractions8Fraction3sub17h80d2a905cd9d14feE
	.p2align	4, 0x90
	.type	_ZN9fractions8Fraction3sub17h80d2a905cd9d14feE,@function
_ZN9fractions8Fraction3sub17h80d2a905cd9d14feE:
.Lfunc_begin8:
	.loc	4 89 0
	.cfi_startproc
	push	rbx
	.cfi_def_cfa_offset 16
	.cfi_offset rbx, -16
	.loc	4 90 46 prologue_end
	mov	r9d, dword ptr [rdi + 4]
	.loc	4 90 64 is_stmt 0
	mov	r8d, dword ptr [rsi + 4]
.Ltmp250:
	.loc	4 14 9 is_stmt 1
	mov	eax, r9d
	neg	eax
	cmovl	eax, r9d
.Ltmp251:
	.loc	4 14 9 is_stmt 0
	mov	ebx, r8d
	neg	ebx
	cmovl	ebx, r8d
.Ltmp252:
	.loc	4 24 26 is_stmt 1
	cmp	eax, ebx
	.loc	4 24 23 is_stmt 0
	cmovg	ebx, eax
	mov	r10d, 1
.Ltmp253:
	.loc	5 540 9 is_stmt 1
	test	ebx, ebx
.Ltmp254:
	.loc	6 775 9
	jle	.LBB8_20
.Ltmp255:
	.loc	6 0 9 is_stmt 0
	cmp	r9d, -2147483648
	.loc	6 775 9
	je	.LBB8_2
.Ltmp256:
	.loc	6 0 9
	cmp	r8d, -2147483648
	.loc	6 775 9
	je	.LBB8_11
.Ltmp257:
	.p2align	4, 0x90
.LBB8_15:
	.loc	7 1259 52 is_stmt 1
	xor	ecx, ecx
	cmp	ebx, 1
	setg	r11b
.Ltmp258:
	.loc	4 31 16
	mov	eax, r9d
	cdq
	idiv	ebx
	test	edx, edx
	jne	.LBB8_16
.Ltmp259:
	.loc	4 31 30 is_stmt 0
	mov	eax, r8d
	cdq
	idiv	ebx
	.loc	4 31 16
	test	edx, edx
	je	.LBB8_19
.Ltmp260:
.LBB8_16:
	.loc	7 1259 52 is_stmt 1
	cmp	ebx, 2
.Ltmp261:
	.loc	6 775 9
	jl	.LBB8_20
.Ltmp262:
	.loc	6 0 0 is_stmt 0
	mov	cl, r11b
	sub	ebx, ecx
.Ltmp263:
	.loc	6 775 9
	test	ebx, ebx
	jg	.LBB8_15
	jmp	.LBB8_20
.Ltmp264:
.LBB8_14:
	.loc	6 0 0
	mov	r11b, cl
	sub	ebx, r11d
.Ltmp265:
	.loc	6 775 9
	test	ebx, ebx
	jle	.LBB8_20
.Ltmp266:
.LBB8_11:
	.loc	7 1259 52 is_stmt 1
	xor	r11d, r11d
	cmp	ebx, 1
	setg	cl
.Ltmp267:
	.loc	4 31 16
	mov	eax, r9d
	cdq
	idiv	ebx
	test	edx, edx
	jne	.LBB8_13
.Ltmp268:
	.loc	4 31 30 is_stmt 0
	mov	eax, -2147483648
	xor	edx, edx
	div	ebx
	.loc	4 31 16
	test	edx, edx
	je	.LBB8_19
.Ltmp269:
.LBB8_13:
	.loc	7 1259 52 is_stmt 1
	cmp	ebx, 2
.Ltmp270:
	.loc	7 0 52 is_stmt 0
	jge	.LBB8_14
	jmp	.LBB8_20
.Ltmp271:
.LBB8_2:
	cmp	r8d, -2147483648
	.loc	6 775 9 is_stmt 1
	je	.LBB8_3
.Ltmp272:
.LBB8_6:
	.loc	7 1259 52
	xor	r11d, r11d
	cmp	ebx, 1
	setg	cl
.Ltmp273:
	.loc	4 31 16
	mov	eax, -2147483648
	xor	edx, edx
	div	ebx
	test	edx, edx
	jne	.LBB8_8
.Ltmp274:
	.loc	4 31 30 is_stmt 0
	mov	eax, r8d
	cdq
	idiv	ebx
	.loc	4 31 16
	test	edx, edx
	je	.LBB8_19
.Ltmp275:
.LBB8_8:
	.loc	7 1259 52 is_stmt 1
	cmp	ebx, 2
.Ltmp276:
	.loc	6 775 9
	jl	.LBB8_20
.Ltmp277:
	.loc	6 0 0 is_stmt 0
	mov	r11b, cl
	sub	ebx, r11d
.Ltmp278:
	.loc	6 775 9
	test	ebx, ebx
	jg	.LBB8_6
	jmp	.LBB8_20
.Ltmp279:
.LBB8_4:
	.loc	7 1259 52 is_stmt 1
	cmp	ebx, 2
.Ltmp280:
	.loc	6 775 9
	jl	.LBB8_20
.Ltmp281:
	.loc	6 0 0 is_stmt 0
	mov	cl, r11b
	sub	ebx, ecx
.Ltmp282:
	.loc	6 775 9
	test	ebx, ebx
	jle	.LBB8_20
.Ltmp283:
.LBB8_3:
	.loc	7 1259 52 is_stmt 1
	xor	ecx, ecx
	cmp	ebx, 1
	setg	r11b
.Ltmp284:
	.loc	4 31 16
	mov	eax, -2147483648
	xor	edx, edx
	div	ebx
	test	edx, edx
	jne	.LBB8_4
.Ltmp285:
.LBB8_19:
	.loc	4 0 0 is_stmt 0
	mov	r10d, ebx
.Ltmp286:
.LBB8_20:
	.loc	4 40 22 is_stmt 1
	mov	eax, r8d
	imul	eax, r9d
	cdq
	idiv	r10d
.Ltmp287:
	.loc	4 14 9
	mov	r10d, eax
.Ltmp288:
	neg	r10d
	cmovl	r10d, eax
.Ltmp289:
	.loc	4 92 33
	test	r9d, r9d
	je	.LBB8_47
.Ltmp290:
	cmp	r9d, -1
	jne	.LBB8_23
.Ltmp291:
	cmp	eax, -2147483648
	je	.LBB8_49
.Ltmp292:
.LBB8_23:
	.loc	4 93 30
	test	r8d, r8d
	je	.LBB8_51
.Ltmp293:
	cmp	r8d, -1
	jne	.LBB8_26
.Ltmp294:
	cmp	eax, -2147483648
	je	.LBB8_52
.Ltmp295:
.LBB8_26:
	.loc	4 92 33
	mov	eax, r10d
	cdq
	idiv	r9d
	mov	ecx, eax
.Ltmp296:
	.loc	4 93 30
	mov	eax, r10d
	cdq
	idiv	r8d
.Ltmp297:
	.loc	4 95 21
	imul	ecx, dword ptr [rdi]
.Ltmp298:
	.loc	4 95 58 is_stmt 0
	imul	eax, dword ptr [rsi]
.Ltmp299:
	.loc	4 95 21
	sub	ecx, eax
.Ltmp300:
	.loc	4 52 9 is_stmt 1
	mov	edi, r10d
.Ltmp301:
	neg	edi
	cmovl	edi, r10d
.Ltmp302:
	.loc	4 14 9
	mov	esi, ecx
.Ltmp303:
	neg	esi
	mov	eax, ecx
	cmovge	eax, esi
.Ltmp304:
	.loc	4 52 12
	test	r10d, r10d
	.loc	4 52 9 is_stmt 0
	cmovns	esi, ecx
.Ltmp305:
	.loc	4 66 9 is_stmt 1
	test	esi, esi
.Ltmp306:
	.loc	4 0 9 is_stmt 0
	mov	r8d, 1
	.loc	4 66 9
	cmove	edi, r8d
.Ltmp307:
	.loc	4 14 9 is_stmt 1
	mov	ecx, edi
.Ltmp308:
	neg	ecx
	cmovl	ecx, edi
.Ltmp309:
	.loc	4 24 26
	cmp	eax, ecx
	.loc	4 24 23 is_stmt 0
	cmovg	ecx, eax
.Ltmp310:
	.loc	5 540 9 is_stmt 1
	test	ecx, ecx
.Ltmp311:
	.loc	6 775 9
	jle	.LBB8_46
.Ltmp312:
	.loc	6 0 9 is_stmt 0
	cmp	esi, -2147483648
	.loc	6 775 9
	je	.LBB8_28
.Ltmp313:
	.loc	6 0 9
	cmp	edi, -2147483648
	.loc	6 775 9
	je	.LBB8_37
.Ltmp314:
	.p2align	4, 0x90
.LBB8_41:
	.loc	7 1259 52 is_stmt 1
	xor	ebx, ebx
	cmp	ecx, 1
	setg	r9b
.Ltmp315:
	.loc	4 31 16
	mov	eax, esi
	cdq
	idiv	ecx
	test	edx, edx
	jne	.LBB8_42
.Ltmp316:
	.loc	4 31 30 is_stmt 0
	mov	eax, edi
	cdq
	idiv	ecx
	.loc	4 31 16
	test	edx, edx
	je	.LBB8_45
.Ltmp317:
.LBB8_42:
	.loc	7 1259 52 is_stmt 1
	cmp	ecx, 2
.Ltmp318:
	.loc	6 775 9
	jl	.LBB8_46
.Ltmp319:
	.loc	6 0 0 is_stmt 0
	mov	bl, r9b
	sub	ecx, ebx
.Ltmp320:
	.loc	6 775 9
	test	ecx, ecx
	jg	.LBB8_41
	jmp	.LBB8_46
.Ltmp321:
.LBB8_40:
	.loc	6 0 0
	mov	bl, r9b
	sub	ecx, ebx
.Ltmp322:
	.loc	6 775 9
	test	ecx, ecx
	jle	.LBB8_46
.Ltmp323:
.LBB8_37:
	.loc	7 1259 52 is_stmt 1
	xor	ebx, ebx
	cmp	ecx, 1
	setg	r9b
.Ltmp324:
	.loc	4 31 16
	mov	eax, esi
	cdq
	idiv	ecx
	test	edx, edx
	jne	.LBB8_39
.Ltmp325:
	.loc	4 31 30 is_stmt 0
	mov	eax, -2147483648
	xor	edx, edx
	div	ecx
	.loc	4 31 16
	test	edx, edx
	je	.LBB8_45
.Ltmp326:
.LBB8_39:
	.loc	7 1259 52 is_stmt 1
	cmp	ecx, 2
.Ltmp327:
	.loc	7 0 52 is_stmt 0
	jge	.LBB8_40
	jmp	.LBB8_46
.Ltmp328:
.LBB8_47:
	.loc	4 92 33 is_stmt 1
	lea	rdi, [rip + str.2]
.Ltmp329:
	lea	rdx, [rip + .L__unnamed_4]
	jmp	.LBB8_48
.Ltmp330:
.LBB8_49:
	lea	rdi, [rip + str.3]
.Ltmp331:
	lea	rdx, [rip + .L__unnamed_4]
	jmp	.LBB8_50
.Ltmp332:
.LBB8_51:
	.loc	4 93 30
	lea	rdi, [rip + str.2]
.Ltmp333:
	lea	rdx, [rip + .L__unnamed_5]
.Ltmp334:
.LBB8_48:
	.loc	4 0 0 is_stmt 0
	mov	esi, 25
.Ltmp335:
	call	qword ptr [rip + _ZN4core9panicking5panic17h10ab123a4b13cc79E@GOTPCREL]
.Ltmp336:
	ud2
.Ltmp337:
.LBB8_52:
	.loc	4 93 30
	lea	rdi, [rip + str.3]
.Ltmp338:
	lea	rdx, [rip + .L__unnamed_5]
.Ltmp339:
.LBB8_50:
	.loc	4 0 0
	mov	esi, 31
.Ltmp340:
	call	qword ptr [rip + _ZN4core9panicking5panic17h10ab123a4b13cc79E@GOTPCREL]
.Ltmp341:
	ud2
.Ltmp342:
.LBB8_28:
	cmp	edi, -2147483648
.Ltmp343:
	.loc	6 775 9 is_stmt 1
	je	.LBB8_29
.Ltmp344:
.LBB8_32:
	.loc	7 1259 52
	xor	ebx, ebx
	cmp	ecx, 1
	setg	r9b
.Ltmp345:
	.loc	4 31 16
	mov	eax, -2147483648
	xor	edx, edx
	div	ecx
	test	edx, edx
	jne	.LBB8_34
.Ltmp346:
	.loc	4 31 30 is_stmt 0
	mov	eax, edi
	cdq
	idiv	ecx
	.loc	4 31 16
	test	edx, edx
	je	.LBB8_45
.Ltmp347:
.LBB8_34:
	.loc	7 1259 52 is_stmt 1
	cmp	ecx, 2
.Ltmp348:
	.loc	6 775 9
	jl	.LBB8_46
.Ltmp349:
	.loc	6 0 0 is_stmt 0
	mov	bl, r9b
	sub	ecx, ebx
.Ltmp350:
	.loc	6 775 9
	test	ecx, ecx
	jg	.LBB8_32
	jmp	.LBB8_46
.Ltmp351:
.LBB8_30:
	.loc	7 1259 52 is_stmt 1
	cmp	ecx, 2
.Ltmp352:
	.loc	6 775 9
	jl	.LBB8_46
.Ltmp353:
	.loc	6 0 0 is_stmt 0
	mov	bl, r9b
	sub	ecx, ebx
.Ltmp354:
	.loc	6 775 9
	test	ecx, ecx
	jle	.LBB8_46
.Ltmp355:
.LBB8_29:
	.loc	7 1259 52 is_stmt 1
	xor	ebx, ebx
	cmp	ecx, 1
	setg	r9b
.Ltmp356:
	.loc	4 31 16
	mov	eax, -2147483648
	xor	edx, edx
	div	ecx
	test	edx, edx
	jne	.LBB8_30
.Ltmp357:
.LBB8_45:
	.loc	4 0 0 is_stmt 0
	mov	r8d, ecx
.Ltmp358:
.LBB8_46:
	.loc	4 72 9 is_stmt 1
	mov	eax, esi
	cdq
	idiv	r8d
	mov	ecx, eax
.Ltmp359:
	.loc	4 73 9
	mov	eax, edi
	cdq
	idiv	r8d
	mov	edx, eax
.Ltmp360:
	.loc	4 100 6
	mov	eax, ecx
	pop	rbx
	.cfi_def_cfa_offset 8
	ret
.Ltmp361:
.Lfunc_end8:
	.size	_ZN9fractions8Fraction3sub17h80d2a905cd9d14feE, .Lfunc_end8-_ZN9fractions8Fraction3sub17h80d2a905cd9d14feE
	.cfi_endproc

	.section	.text._ZN9fractions8Fraction3mul17hb85e0a8b31fdddefE,"ax",@progbits
	.globl	_ZN9fractions8Fraction3mul17hb85e0a8b31fdddefE
	.p2align	4, 0x90
	.type	_ZN9fractions8Fraction3mul17hb85e0a8b31fdddefE,@function
_ZN9fractions8Fraction3mul17hb85e0a8b31fdddefE:
.Lfunc_begin9:
	.loc	4 102 0
	.cfi_startproc
	.loc	4 103 42 prologue_end
	mov	eax, dword ptr [rsi]
.Ltmp362:
	.loc	4 104 44
	mov	ecx, dword ptr [rsi + 4]
.Ltmp363:
	.loc	4 103 25
	imul	eax, dword ptr [rdi]
.Ltmp364:
	.loc	4 104 25
	imul	ecx, dword ptr [rdi + 4]
.Ltmp365:
	.loc	4 52 9
	mov	r10d, ecx
	neg	r10d
	cmovl	r10d, ecx
.Ltmp366:
	.loc	4 14 9
	mov	esi, eax
.Ltmp367:
	neg	esi
	mov	edx, eax
	cmovge	edx, esi
.Ltmp368:
	.loc	4 52 12
	test	ecx, ecx
	.loc	4 52 9 is_stmt 0
	cmovns	esi, eax
.Ltmp369:
	.loc	4 66 9 is_stmt 1
	test	esi, esi
.Ltmp370:
	.loc	4 0 9 is_stmt 0
	mov	r8d, 1
	.loc	4 66 9
	cmove	r10d, r8d
.Ltmp371:
	.loc	4 14 9 is_stmt 1
	mov	ecx, r10d
.Ltmp372:
	neg	ecx
	cmovl	ecx, r10d
.Ltmp373:
	.loc	4 24 26
	cmp	edx, ecx
	.loc	4 24 23 is_stmt 0
	cmovg	ecx, edx
.Ltmp374:
	.loc	5 540 9 is_stmt 1
	test	ecx, ecx
.Ltmp375:
	.loc	6 775 9
	jle	.LBB9_20
.Ltmp376:
	.loc	6 0 9 is_stmt 0
	cmp	esi, -2147483648
	.loc	6 775 9
	je	.LBB9_2
.Ltmp377:
	.loc	6 0 9
	cmp	r10d, -2147483648
	.loc	6 775 9
	je	.LBB9_11
.Ltmp378:
	.p2align	4, 0x90
.LBB9_15:
	.loc	7 1259 52 is_stmt 1
	xor	edi, edi
.Ltmp379:
	cmp	ecx, 1
	setg	r9b
.Ltmp380:
	.loc	4 31 16
	mov	eax, esi
	cdq
	idiv	ecx
	test	edx, edx
	jne	.LBB9_16
.Ltmp381:
	.loc	4 31 30 is_stmt 0
	mov	eax, r10d
	cdq
	idiv	ecx
	.loc	4 31 16
	test	edx, edx
	je	.LBB9_19
.Ltmp382:
.LBB9_16:
	.loc	7 1259 52 is_stmt 1
	cmp	ecx, 2
.Ltmp383:
	.loc	6 775 9
	jl	.LBB9_20
.Ltmp384:
	.loc	6 0 0 is_stmt 0
	mov	dil, r9b
	sub	ecx, edi
.Ltmp385:
	.loc	6 775 9
	test	ecx, ecx
	jg	.LBB9_15
	jmp	.LBB9_20
.Ltmp386:
.LBB9_14:
	.loc	6 0 0
	mov	r9b, dil
	sub	ecx, r9d
.Ltmp387:
	.loc	6 775 9
	test	ecx, ecx
	jle	.LBB9_20
.Ltmp388:
.LBB9_11:
	.loc	7 1259 52 is_stmt 1
	xor	r9d, r9d
	cmp	ecx, 1
	setg	dil
.Ltmp389:
	.loc	4 31 16
	mov	eax, esi
	cdq
	idiv	ecx
	test	edx, edx
	jne	.LBB9_13
.Ltmp390:
	.loc	4 31 30 is_stmt 0
	mov	eax, -2147483648
	xor	edx, edx
	div	ecx
	.loc	4 31 16
	test	edx, edx
	je	.LBB9_19
.Ltmp391:
.LBB9_13:
	.loc	7 1259 52 is_stmt 1
	cmp	ecx, 2
.Ltmp392:
	.loc	7 0 52 is_stmt 0
	jge	.LBB9_14
	jmp	.LBB9_20
.Ltmp393:
.LBB9_2:
	cmp	r10d, -2147483648
	.loc	6 775 9 is_stmt 1
	je	.LBB9_3
.Ltmp394:
.LBB9_6:
	.loc	7 1259 52
	xor	r9d, r9d
	cmp	ecx, 1
	setg	dil
.Ltmp395:
	.loc	4 31 16
	mov	eax, -2147483648
	xor	edx, edx
	div	ecx
	test	edx, edx
	jne	.LBB9_8
.Ltmp396:
	.loc	4 31 30 is_stmt 0
	mov	eax, r10d
	cdq
	idiv	ecx
	.loc	4 31 16
	test	edx, edx
	je	.LBB9_19
.Ltmp397:
.LBB9_8:
	.loc	7 1259 52 is_stmt 1
	cmp	ecx, 2
.Ltmp398:
	.loc	6 775 9
	jl	.LBB9_20
.Ltmp399:
	.loc	6 0 0 is_stmt 0
	mov	r9b, dil
	sub	ecx, r9d
.Ltmp400:
	.loc	6 775 9
	test	ecx, ecx
	jg	.LBB9_6
	jmp	.LBB9_20
.Ltmp401:
.LBB9_4:
	.loc	7 1259 52 is_stmt 1
	cmp	ecx, 2
.Ltmp402:
	.loc	6 775 9
	jl	.LBB9_20
.Ltmp403:
	.loc	6 0 0 is_stmt 0
	mov	dil, r9b
	sub	ecx, edi
.Ltmp404:
	.loc	6 775 9
	test	ecx, ecx
	jle	.LBB9_20
.Ltmp405:
.LBB9_3:
	.loc	7 1259 52 is_stmt 1
	xor	edi, edi
.Ltmp406:
	cmp	ecx, 1
	setg	r9b
.Ltmp407:
	.loc	4 31 16
	mov	eax, -2147483648
	xor	edx, edx
	div	ecx
	test	edx, edx
	jne	.LBB9_4
.Ltmp408:
.LBB9_19:
	.loc	4 0 0 is_stmt 0
	mov	r8d, ecx
.Ltmp409:
.LBB9_20:
	.loc	4 72 9 is_stmt 1
	mov	eax, esi
	cdq
	idiv	r8d
	mov	esi, eax
.Ltmp410:
	.loc	4 73 9
	mov	eax, r10d
	cdq
	idiv	r8d
	mov	edx, eax
.Ltmp411:
	.loc	4 109 6
	mov	eax, esi
	ret
.Ltmp412:
.Lfunc_end9:
	.size	_ZN9fractions8Fraction3mul17hb85e0a8b31fdddefE, .Lfunc_end9-_ZN9fractions8Fraction3mul17hb85e0a8b31fdddefE
	.cfi_endproc

	.section	.text._ZN9fractions8Fraction3div17hd71c093c684e6753E,"ax",@progbits
	.globl	_ZN9fractions8Fraction3div17hd71c093c684e6753E
	.p2align	4, 0x90
	.type	_ZN9fractions8Fraction3div17hd71c093c684e6753E,@function
_ZN9fractions8Fraction3div17hd71c093c684e6753E:
.Lfunc_begin10:
	.loc	4 111 0
	.cfi_startproc
	push	rax
	.cfi_def_cfa_offset 16
.Ltmp413:
	.loc	4 112 64 prologue_end
	mov	eax, dword ptr [rsi]
	.loc	4 112 45 is_stmt 0
	mov	ecx, dword ptr [rsi + 4]
.Ltmp414:
	.loc	4 52 9 is_stmt 1
	mov	edx, ecx
	neg	edx
	mov	esi, eax
.Ltmp415:
	neg	esi
	cmovl	esi, eax
.Ltmp416:
	.loc	4 52 12 is_stmt 0
	test	eax, eax
	.loc	4 52 9
	cmovns	edx, ecx
.Ltmp417:
	.loc	4 112 31 is_stmt 1
	mov	dword ptr [rsp], edx
	mov	dword ptr [rsp + 4], esi
	mov	rsi, rsp
	.loc	4 112 21 is_stmt 0
	call	qword ptr [rip + _ZN9fractions8Fraction3mul17hb85e0a8b31fdddefE@GOTPCREL]
.Ltmp418:
	mov	esi, eax
	mov	r10d, edx
.Ltmp419:
	.loc	4 66 9 is_stmt 1
	test	eax, eax
	mov	r8d, 1
	cmove	r10d, r8d
.Ltmp420:
	.loc	4 14 9
	neg	eax
	cmovl	eax, esi
.Ltmp421:
	.loc	4 14 9 is_stmt 0
	mov	ecx, r10d
	neg	ecx
	cmovl	ecx, r10d
.Ltmp422:
	.loc	4 24 26 is_stmt 1
	cmp	eax, ecx
	.loc	4 24 23 is_stmt 0
	cmovg	ecx, eax
.Ltmp423:
	.loc	5 540 9 is_stmt 1
	test	ecx, ecx
.Ltmp424:
	.loc	6 775 9
	jle	.LBB10_20
.Ltmp425:
	.loc	6 0 9 is_stmt 0
	cmp	esi, -2147483648
	.loc	6 775 9
	je	.LBB10_2
.Ltmp426:
	.loc	6 0 9
	cmp	r10d, -2147483648
	.loc	6 775 9
	je	.LBB10_11
.Ltmp427:
	.p2align	4, 0x90
.LBB10_15:
	.loc	7 1259 52 is_stmt 1
	xor	edi, edi
	cmp	ecx, 1
	setg	r9b
.Ltmp428:
	.loc	4 31 16
	mov	eax, esi
	cdq
	idiv	ecx
	test	edx, edx
	jne	.LBB10_16
.Ltmp429:
	.loc	4 31 30 is_stmt 0
	mov	eax, r10d
	cdq
	idiv	ecx
	.loc	4 31 16
	test	edx, edx
	je	.LBB10_19
.Ltmp430:
.LBB10_16:
	.loc	7 1259 52 is_stmt 1
	cmp	ecx, 2
.Ltmp431:
	.loc	6 775 9
	jl	.LBB10_20
.Ltmp432:
	.loc	6 0 0 is_stmt 0
	mov	dil, r9b
	sub	ecx, edi
.Ltmp433:
	.loc	6 775 9
	test	ecx, ecx
	jg	.LBB10_15
	jmp	.LBB10_20
.Ltmp434:
.LBB10_14:
	.loc	6 0 0
	mov	r9b, dil
	sub	ecx, r9d
.Ltmp435:
	.loc	6 775 9
	test	ecx, ecx
	jle	.LBB10_20
.Ltmp436:
.LBB10_11:
	.loc	7 1259 52 is_stmt 1
	xor	r9d, r9d
	cmp	ecx, 1
	setg	dil
.Ltmp437:
	.loc	4 31 16
	mov	eax, esi
	cdq
	idiv	ecx
	test	edx, edx
	jne	.LBB10_13
.Ltmp438:
	.loc	4 31 30 is_stmt 0
	mov	eax, -2147483648
	xor	edx, edx
	div	ecx
	.loc	4 31 16
	test	edx, edx
	je	.LBB10_19
.Ltmp439:
.LBB10_13:
	.loc	7 1259 52 is_stmt 1
	cmp	ecx, 2
.Ltmp440:
	.loc	7 0 52 is_stmt 0
	jge	.LBB10_14
	jmp	.LBB10_20
.Ltmp441:
.LBB10_2:
	cmp	r10d, -2147483648
	.loc	6 775 9 is_stmt 1
	je	.LBB10_3
.Ltmp442:
.LBB10_6:
	.loc	7 1259 52
	xor	r9d, r9d
	cmp	ecx, 1
	setg	dil
.Ltmp443:
	.loc	4 31 16
	mov	eax, -2147483648
	xor	edx, edx
	div	ecx
	test	edx, edx
	jne	.LBB10_8
.Ltmp444:
	.loc	4 31 30 is_stmt 0
	mov	eax, r10d
	cdq
	idiv	ecx
	.loc	4 31 16
	test	edx, edx
	je	.LBB10_19
.Ltmp445:
.LBB10_8:
	.loc	7 1259 52 is_stmt 1
	cmp	ecx, 2
.Ltmp446:
	.loc	6 775 9
	jl	.LBB10_20
.Ltmp447:
	.loc	6 0 0 is_stmt 0
	mov	r9b, dil
	sub	ecx, r9d
.Ltmp448:
	.loc	6 775 9
	test	ecx, ecx
	jg	.LBB10_6
	jmp	.LBB10_20
.Ltmp449:
.LBB10_4:
	.loc	7 1259 52 is_stmt 1
	cmp	ecx, 2
.Ltmp450:
	.loc	6 775 9
	jl	.LBB10_20
.Ltmp451:
	.loc	6 0 0 is_stmt 0
	mov	dil, r9b
	sub	ecx, edi
.Ltmp452:
	.loc	6 775 9
	test	ecx, ecx
	jle	.LBB10_20
.Ltmp453:
.LBB10_3:
	.loc	7 1259 52 is_stmt 1
	xor	edi, edi
	cmp	ecx, 1
	setg	r9b
.Ltmp454:
	.loc	4 31 16
	mov	eax, -2147483648
	xor	edx, edx
	div	ecx
	test	edx, edx
	jne	.LBB10_4
.Ltmp455:
.LBB10_19:
	.loc	4 0 0 is_stmt 0
	mov	r8d, ecx
.Ltmp456:
.LBB10_20:
	.loc	4 72 9 is_stmt 1
	mov	eax, esi
	cdq
	idiv	r8d
	mov	esi, eax
.Ltmp457:
	.loc	4 73 9
	mov	eax, r10d
	cdq
	idiv	r8d
	mov	edx, eax
.Ltmp458:
	.loc	4 115 6
	mov	eax, esi
	pop	rcx
	.cfi_def_cfa_offset 8
	ret
.Ltmp459:
.Lfunc_end10:
	.size	_ZN9fractions8Fraction3div17hd71c093c684e6753E, .Lfunc_end10-_ZN9fractions8Fraction3div17hd71c093c684e6753E
	.cfi_endproc

	.section	.text._ZN9fractions8Fraction10to_decimal17hd6f69bd3edb278bcE,"ax",@progbits
	.globl	_ZN9fractions8Fraction10to_decimal17hd6f69bd3edb278bcE
	.p2align	4, 0x90
	.type	_ZN9fractions8Fraction10to_decimal17hd6f69bd3edb278bcE,@function
_ZN9fractions8Fraction10to_decimal17hd6f69bd3edb278bcE:
.Lfunc_begin11:
	.loc	4 117 0
	.cfi_startproc
	.loc	4 118 9 prologue_end
	cvtsi2sd	xmm0, dword ptr [rdi]
	.loc	4 118 33 is_stmt 0
	cvtsi2sd	xmm1, dword ptr [rdi + 4]
	.loc	4 118 9
	divsd	xmm0, xmm1
	.loc	4 119 6 is_stmt 1
	ret
.Ltmp460:
.Lfunc_end11:
	.size	_ZN9fractions8Fraction10to_decimal17hd6f69bd3edb278bcE, .Lfunc_end11-_ZN9fractions8Fraction10to_decimal17hd6f69bd3edb278bcE
	.cfi_endproc

	.section	.text._ZN9fractions8Fraction3sqr17h81a3fb6ebb427aedE,"ax",@progbits
	.globl	_ZN9fractions8Fraction3sqr17h81a3fb6ebb427aedE
	.p2align	4, 0x90
	.type	_ZN9fractions8Fraction3sqr17h81a3fb6ebb427aedE,@function
_ZN9fractions8Fraction3sqr17h81a3fb6ebb427aedE:
.Lfunc_begin12:
	.loc	4 121 0
	.cfi_startproc
	.loc	4 122 27 prologue_end
	mov	eax, dword ptr [rdi]
	.loc	4 123 29
	mov	ecx, dword ptr [rdi + 4]
	.loc	4 122 9
	imul	eax, eax
	mov	dword ptr [rdi], eax
	.loc	4 123 9
	imul	ecx, ecx
	mov	dword ptr [rdi + 4], ecx
	.loc	4 124 9
	jmp	qword ptr [rip + _ZN9fractions8Fraction11reduce_form17h71eb62d0ad04c55fE@GOTPCREL]
.Ltmp461:
.Lfunc_end12:
	.size	_ZN9fractions8Fraction3sqr17h81a3fb6ebb427aedE, .Lfunc_end12-_ZN9fractions8Fraction3sqr17h81a3fb6ebb427aedE
	.cfi_endproc

	.section	.text._ZN9fractions8Fraction3avg17h7335913fecf4998fE,"ax",@progbits
	.globl	_ZN9fractions8Fraction3avg17h7335913fecf4998fE
	.p2align	4, 0x90
	.type	_ZN9fractions8Fraction3avg17h7335913fecf4998fE,@function
_ZN9fractions8Fraction3avg17h7335913fecf4998fE:
.Lfunc_begin13:
	.loc	4 127 0
	.cfi_startproc
	sub	rsp, 24
	.cfi_def_cfa_offset 32
.Ltmp462:
	.loc	4 128 24 prologue_end
	call	qword ptr [rip + _ZN9fractions8Fraction3add17h6dec614af4ab4530E@GOTPCREL]
.Ltmp463:
	mov	dword ptr [rsp + 8], eax
	mov	dword ptr [rsp + 12], edx
	movabs	rax, 8589934593
.Ltmp464:
	.loc	4 129 35
	mov	qword ptr [rsp + 16], rax
	lea	rdi, [rsp + 8]
	lea	rsi, [rsp + 16]
	.loc	4 129 21 is_stmt 0
	call	qword ptr [rip + _ZN9fractions8Fraction3mul17hb85e0a8b31fdddefE@GOTPCREL]
	mov	esi, eax
	mov	r10d, edx
.Ltmp465:
	.loc	4 66 9 is_stmt 1
	test	eax, eax
	mov	r8d, 1
	cmove	r10d, r8d
.Ltmp466:
	.loc	4 14 9
	neg	eax
	cmovl	eax, esi
.Ltmp467:
	.loc	4 14 9 is_stmt 0
	mov	ecx, r10d
	neg	ecx
	cmovl	ecx, r10d
.Ltmp468:
	.loc	4 24 26 is_stmt 1
	cmp	eax, ecx
	.loc	4 24 23 is_stmt 0
	cmovg	ecx, eax
.Ltmp469:
	.loc	5 540 9 is_stmt 1
	test	ecx, ecx
.Ltmp470:
	.loc	6 775 9
	jle	.LBB13_20
.Ltmp471:
	.loc	6 0 9 is_stmt 0
	cmp	esi, -2147483648
	.loc	6 775 9
	je	.LBB13_2
.Ltmp472:
	.loc	6 0 9
	cmp	r10d, -2147483648
	.loc	6 775 9
	je	.LBB13_11
.Ltmp473:
	.p2align	4, 0x90
.LBB13_15:
	.loc	7 1259 52 is_stmt 1
	xor	edi, edi
	cmp	ecx, 1
	setg	r9b
.Ltmp474:
	.loc	4 31 16
	mov	eax, esi
	cdq
	idiv	ecx
	test	edx, edx
	jne	.LBB13_16
.Ltmp475:
	.loc	4 31 30 is_stmt 0
	mov	eax, r10d
	cdq
	idiv	ecx
	.loc	4 31 16
	test	edx, edx
	je	.LBB13_19
.Ltmp476:
.LBB13_16:
	.loc	7 1259 52 is_stmt 1
	cmp	ecx, 2
.Ltmp477:
	.loc	6 775 9
	jl	.LBB13_20
.Ltmp478:
	.loc	6 0 0 is_stmt 0
	mov	dil, r9b
	sub	ecx, edi
.Ltmp479:
	.loc	6 775 9
	test	ecx, ecx
	jg	.LBB13_15
	jmp	.LBB13_20
.Ltmp480:
.LBB13_14:
	.loc	6 0 0
	mov	r9b, dil
	sub	ecx, r9d
.Ltmp481:
	.loc	6 775 9
	test	ecx, ecx
	jle	.LBB13_20
.Ltmp482:
.LBB13_11:
	.loc	7 1259 52 is_stmt 1
	xor	r9d, r9d
	cmp	ecx, 1
	setg	dil
.Ltmp483:
	.loc	4 31 16
	mov	eax, esi
	cdq
	idiv	ecx
	test	edx, edx
	jne	.LBB13_13
.Ltmp484:
	.loc	4 31 30 is_stmt 0
	mov	eax, -2147483648
	xor	edx, edx
	div	ecx
	.loc	4 31 16
	test	edx, edx
	je	.LBB13_19
.Ltmp485:
.LBB13_13:
	.loc	7 1259 52 is_stmt 1
	cmp	ecx, 2
.Ltmp486:
	.loc	7 0 52 is_stmt 0
	jge	.LBB13_14
	jmp	.LBB13_20
.Ltmp487:
.LBB13_2:
	cmp	r10d, -2147483648
	.loc	6 775 9 is_stmt 1
	je	.LBB13_3
.Ltmp488:
.LBB13_6:
	.loc	7 1259 52
	xor	r9d, r9d
	cmp	ecx, 1
	setg	dil
.Ltmp489:
	.loc	4 31 16
	mov	eax, -2147483648
	xor	edx, edx
	div	ecx
	test	edx, edx
	jne	.LBB13_8
.Ltmp490:
	.loc	4 31 30 is_stmt 0
	mov	eax, r10d
	cdq
	idiv	ecx
	.loc	4 31 16
	test	edx, edx
	je	.LBB13_19
.Ltmp491:
.LBB13_8:
	.loc	7 1259 52 is_stmt 1
	cmp	ecx, 2
.Ltmp492:
	.loc	6 775 9
	jl	.LBB13_20
.Ltmp493:
	.loc	6 0 0 is_stmt 0
	mov	r9b, dil
	sub	ecx, r9d
.Ltmp494:
	.loc	6 775 9
	test	ecx, ecx
	jg	.LBB13_6
	jmp	.LBB13_20
.Ltmp495:
.LBB13_4:
	.loc	7 1259 52 is_stmt 1
	cmp	ecx, 2
.Ltmp496:
	.loc	6 775 9
	jl	.LBB13_20
.Ltmp497:
	.loc	6 0 0 is_stmt 0
	mov	dil, r9b
	sub	ecx, edi
.Ltmp498:
	.loc	6 775 9
	test	ecx, ecx
	jle	.LBB13_20
.Ltmp499:
.LBB13_3:
	.loc	7 1259 52 is_stmt 1
	xor	edi, edi
	cmp	ecx, 1
	setg	r9b
.Ltmp500:
	.loc	4 31 16
	mov	eax, -2147483648
	xor	edx, edx
	div	ecx
	test	edx, edx
	jne	.LBB13_4
.Ltmp501:
.LBB13_19:
	.loc	4 0 0 is_stmt 0
	mov	r8d, ecx
.Ltmp502:
.LBB13_20:
	.loc	4 72 9 is_stmt 1
	mov	eax, esi
	cdq
	idiv	r8d
	mov	esi, eax
.Ltmp503:
	.loc	4 73 9
	mov	eax, r10d
	cdq
	idiv	r8d
	mov	edx, eax
.Ltmp504:
	.loc	4 132 6
	mov	eax, esi
	add	rsp, 24
	.cfi_def_cfa_offset 8
	ret
.Ltmp505:
.Lfunc_end13:
	.size	_ZN9fractions8Fraction3avg17h7335913fecf4998fE, .Lfunc_end13-_ZN9fractions8Fraction3avg17h7335913fecf4998fE
	.cfi_endproc

	.section	.text._ZN9fractions8Fraction15set_denominator17h9ed704c8d09cb8efE,"ax",@progbits
	.globl	_ZN9fractions8Fraction15set_denominator17h9ed704c8d09cb8efE
	.p2align	4, 0x90
	.type	_ZN9fractions8Fraction15set_denominator17h9ed704c8d09cb8efE,@function
_ZN9fractions8Fraction15set_denominator17h9ed704c8d09cb8efE:
.Lfunc_begin14:
	.loc	4 134 0
	.cfi_startproc
	.loc	4 135 9 prologue_end
	mov	dword ptr [rdi + 4], esi
	.loc	4 136 6
	ret
.Ltmp506:
.Lfunc_end14:
	.size	_ZN9fractions8Fraction15set_denominator17h9ed704c8d09cb8efE, .Lfunc_end14-_ZN9fractions8Fraction15set_denominator17h9ed704c8d09cb8efE
	.cfi_endproc

	.section	".text._ZN67_$LT$fractions..Fraction$u20$as$u20$fractions..FractionAverages$GT$16avg_of_fractions17h8151d00163b8825cE","ax",@progbits
	.globl	_ZN67_$LT$fractions..Fraction$u20$as$u20$fractions..FractionAverages$GT$16avg_of_fractions17h8151d00163b8825cE
	.p2align	4, 0x90
	.type	_ZN67_$LT$fractions..Fraction$u20$as$u20$fractions..FractionAverages$GT$16avg_of_fractions17h8151d00163b8825cE,@function
_ZN67_$LT$fractions..Fraction$u20$as$u20$fractions..FractionAverages$GT$16avg_of_fractions17h8151d00163b8825cE:
.Lfunc_begin15:
	.loc	4 145 0
	.cfi_startproc
	push	rbp
	.cfi_def_cfa_offset 16
	push	r15
	.cfi_def_cfa_offset 24
	push	r14
	.cfi_def_cfa_offset 32
	push	r13
	.cfi_def_cfa_offset 40
	push	r12
	.cfi_def_cfa_offset 48
	push	rbx
	.cfi_def_cfa_offset 56
	sub	rsp, 24
	.cfi_def_cfa_offset 80
	.cfi_offset rbx, -56
	.cfi_offset r12, -48
	.cfi_offset r13, -40
	.cfi_offset r14, -32
	.cfi_offset r15, -24
	.cfi_offset rbp, -16
	.loc	4 146 12 prologue_end
	mov	r12, qword ptr [rdi + 16]
	.loc	4 146 9 is_stmt 0
	test	r12, r12
	je	.LBB15_1
.Ltmp507:
	cmp	r12, 1
	jne	.LBB15_26
.Ltmp508:
	.file	9 "/home/bexx/.rustup/toolchains/stable-x86_64-unknown-linux-gnu/lib/rustlib/src/rust/library/alloc/src/vec/mod.rs"
	.loc	9 1097 19 is_stmt 1
	mov	rax, qword ptr [rdi]
.Ltmp509:
	.loc	4 149 20
	mov	ecx, dword ptr [rax]
	mov	edx, dword ptr [rax + 4]
	jmp	.LBB15_4
.Ltmp510:
.LBB15_1:
	.loc	4 0 20 is_stmt 0
	xor	ecx, ecx
	mov	edx, 1
	jmp	.LBB15_4
.Ltmp511:
.LBB15_26:
	.loc	9 1097 19 is_stmt 1
	mov	rbx, qword ptr [rdi]
.Ltmp512:
	.loc	4 152 21
	mov	r15d, dword ptr [rbx]
	mov	eax, dword ptr [rbx + 4]
	mov	dword ptr [rsp + 16], r15d
	mov	dword ptr [rsp + 12], eax
	mov	dword ptr [rsp + 20], eax
.Ltmp513:
	.loc	6 509 9
	add	rbx, 8
.Ltmp514:
	lea	rbp, [r12 - 1]
	lea	r13, [rsp + 16]
	mov	r14, qword ptr [rip + _ZN9fractions8Fraction3add17h6dec614af4ab4530E@GOTPCREL]
.Ltmp515:
	.p2align	4, 0x90
.LBB15_27:
	.loc	4 154 13
	mov	rdi, r13
.Ltmp516:
	mov	rsi, rbx
	call	r14
.Ltmp517:
	.loc	7 1259 52
	add	rbx, 8
	add	rbp, -1
.Ltmp518:
	.loc	6 509 9
	jne	.LBB15_27
.Ltmp519:
	.loc	6 0 9 is_stmt 0
	mov	ebp, dword ptr [rsp + 12]
	.loc	4 157 27 is_stmt 1
	imul	ebp, r12d
.Ltmp520:
	.loc	4 66 9
	test	r15d, r15d
	mov	esi, 1
	cmove	ebp, esi
.Ltmp521:
	.loc	4 14 9
	mov	eax, r15d
	neg	eax
	cmovl	eax, r15d
.Ltmp522:
	.loc	4 14 9 is_stmt 0
	mov	ecx, ebp
	neg	ecx
	cmovl	ecx, ebp
.Ltmp523:
	.loc	4 24 26 is_stmt 1
	cmp	eax, ecx
	.loc	4 24 23 is_stmt 0
	cmovg	ecx, eax
.Ltmp524:
	.loc	5 540 9 is_stmt 1
	test	ecx, ecx
.Ltmp525:
	.loc	6 775 9
	jle	.LBB15_25
.Ltmp526:
	.loc	6 0 9 is_stmt 0
	cmp	r15d, -2147483648
	.loc	6 775 9
	je	.LBB15_7
.Ltmp527:
	.loc	6 0 9
	cmp	ebp, -2147483648
	.loc	6 775 9
	je	.LBB15_16
.Ltmp528:
	.p2align	4, 0x90
.LBB15_20:
	.loc	7 1259 52 is_stmt 1
	xor	edi, edi
	cmp	ecx, 1
	setg	bl
.Ltmp529:
	.loc	4 31 16
	mov	eax, r15d
	cdq
	idiv	ecx
	test	edx, edx
	jne	.LBB15_21
.Ltmp530:
	.loc	4 31 30 is_stmt 0
	mov	eax, ebp
	cdq
	idiv	ecx
	.loc	4 31 16
	test	edx, edx
	je	.LBB15_24
.Ltmp531:
.LBB15_21:
	.loc	7 1259 52 is_stmt 1
	cmp	ecx, 2
.Ltmp532:
	.loc	6 775 9
	jl	.LBB15_25
.Ltmp533:
	.loc	6 0 0 is_stmt 0
	mov	dil, bl
	sub	ecx, edi
.Ltmp534:
	.loc	6 775 9
	test	ecx, ecx
	jg	.LBB15_20
	jmp	.LBB15_25
.Ltmp535:
.LBB15_19:
	.loc	6 0 0
	mov	dil, bl
	sub	ecx, edi
.Ltmp536:
	.loc	6 775 9
	test	ecx, ecx
	jle	.LBB15_25
.Ltmp537:
.LBB15_16:
	.loc	7 1259 52 is_stmt 1
	xor	edi, edi
	cmp	ecx, 1
	setg	bl
.Ltmp538:
	.loc	4 31 16
	mov	eax, r15d
	cdq
	idiv	ecx
	test	edx, edx
	jne	.LBB15_18
.Ltmp539:
	.loc	4 31 30 is_stmt 0
	mov	eax, -2147483648
	xor	edx, edx
	div	ecx
	.loc	4 31 16
	test	edx, edx
	je	.LBB15_24
.Ltmp540:
.LBB15_18:
	.loc	7 1259 52 is_stmt 1
	cmp	ecx, 2
.Ltmp541:
	.loc	7 0 52 is_stmt 0
	jge	.LBB15_19
	jmp	.LBB15_25
.Ltmp542:
.LBB15_7:
	cmp	ebp, -2147483648
	.loc	6 775 9 is_stmt 1
	je	.LBB15_8
.Ltmp543:
.LBB15_11:
	.loc	7 1259 52
	xor	edi, edi
	cmp	ecx, 1
	setg	bl
.Ltmp544:
	.loc	4 31 16
	mov	eax, -2147483648
	xor	edx, edx
	div	ecx
	test	edx, edx
	jne	.LBB15_13
.Ltmp545:
	.loc	4 31 30 is_stmt 0
	mov	eax, ebp
	cdq
	idiv	ecx
	.loc	4 31 16
	test	edx, edx
	je	.LBB15_24
.Ltmp546:
.LBB15_13:
	.loc	7 1259 52 is_stmt 1
	cmp	ecx, 2
.Ltmp547:
	.loc	6 775 9
	jl	.LBB15_25
.Ltmp548:
	.loc	6 0 0 is_stmt 0
	mov	dil, bl
	sub	ecx, edi
.Ltmp549:
	.loc	6 775 9
	test	ecx, ecx
	jg	.LBB15_11
	jmp	.LBB15_25
.Ltmp550:
.LBB15_9:
	.loc	7 1259 52 is_stmt 1
	cmp	ecx, 2
.Ltmp551:
	.loc	6 775 9
	jl	.LBB15_25
.Ltmp552:
	.loc	6 0 0 is_stmt 0
	mov	dil, bl
	sub	ecx, edi
.Ltmp553:
	.loc	6 775 9
	test	ecx, ecx
	jle	.LBB15_25
.Ltmp554:
.LBB15_8:
	.loc	7 1259 52 is_stmt 1
	xor	edi, edi
	cmp	ecx, 1
	setg	bl
.Ltmp555:
	.loc	4 31 16
	mov	eax, -2147483648
	xor	edx, edx
	div	ecx
	test	edx, edx
	jne	.LBB15_9
.Ltmp556:
.LBB15_24:
	.loc	4 0 0 is_stmt 0
	mov	esi, ecx
.Ltmp557:
.LBB15_25:
	.loc	4 72 9 is_stmt 1
	mov	eax, r15d
	cdq
	idiv	esi
	mov	ecx, eax
	.loc	4 73 9
	mov	eax, ebp
	cdq
	idiv	esi
	mov	edx, eax
.Ltmp558:
.LBB15_4:
	.loc	4 160 6
	mov	eax, ecx
	add	rsp, 24
	.cfi_def_cfa_offset 56
	pop	rbx
	.cfi_def_cfa_offset 48
	pop	r12
	.cfi_def_cfa_offset 40
	pop	r13
	.cfi_def_cfa_offset 32
	pop	r14
	.cfi_def_cfa_offset 24
	pop	r15
	.cfi_def_cfa_offset 16
	pop	rbp
	.cfi_def_cfa_offset 8
	ret
.Ltmp559:
.Lfunc_end15:
	.size	_ZN67_$LT$fractions..Fraction$u20$as$u20$fractions..FractionAverages$GT$16avg_of_fractions17h8151d00163b8825cE, .Lfunc_end15-_ZN67_$LT$fractions..Fraction$u20$as$u20$fractions..FractionAverages$GT$16avg_of_fractions17h8151d00163b8825cE
	.cfi_endproc

	.section	".text._ZN67_$LT$fractions..Fraction$u20$as$u20$fractions..FractionAverages$GT$11avg_of_ints17h7f3abdf351531574E","ax",@progbits
	.globl	_ZN67_$LT$fractions..Fraction$u20$as$u20$fractions..FractionAverages$GT$11avg_of_ints17h7f3abdf351531574E
	.p2align	4, 0x90
	.type	_ZN67_$LT$fractions..Fraction$u20$as$u20$fractions..FractionAverages$GT$11avg_of_ints17h7f3abdf351531574E,@function
_ZN67_$LT$fractions..Fraction$u20$as$u20$fractions..FractionAverages$GT$11avg_of_ints17h7f3abdf351531574E:
.Lfunc_begin16:
	.loc	4 162 0
	.cfi_startproc
	.loc	4 163 9 prologue_end
	test	rsi, rsi
	je	.LBB16_1
.Ltmp560:
	.file	10 "/home/bexx/.rustup/toolchains/stable-x86_64-unknown-linux-gnu/lib/rustlib/src/rust/library/core/src/slice/iter/macros.rs"
	.loc	10 146 21
	lea	r9, [4*rsi - 4]
	cmp	r9, 28
	jae	.LBB16_4
.Ltmp561:
	.loc	10 0 21 is_stmt 0
	xor	eax, eax
	mov	rcx, rdi
	jmp	.LBB16_13
.Ltmp562:
.LBB16_1:
	xor	eax, eax
	mov	edx, 1
	.loc	4 175 6 is_stmt 1
	ret
.Ltmp563:
.LBB16_4:
	.loc	10 146 21
	shr	r9, 2
	add	r9, 1
	mov	r8, r9
	and	r8, -8
	lea	rcx, [r8 - 8]
	mov	rdx, rcx
	shr	rdx, 3
	add	rdx, 1
	mov	eax, edx
	and	eax, 3
	cmp	rcx, 24
	jae	.LBB16_6
.Ltmp564:
	.loc	10 0 21 is_stmt 0
	pxor	xmm0, xmm0
	xor	ecx, ecx
	pxor	xmm1, xmm1
	jmp	.LBB16_8
.Ltmp565:
.LBB16_6:
	.loc	10 146 21
	and	rdx, -4
	neg	rdx
	pxor	xmm0, xmm0
	xor	ecx, ecx
	pxor	xmm1, xmm1
.Ltmp566:
	.p2align	4, 0x90
.LBB16_7:
	.loc	4 169 22 is_stmt 1
	movdqu	xmm2, xmmword ptr [rdi + 4*rcx]
	.loc	4 169 13 is_stmt 0
	paddd	xmm2, xmm0
	.loc	4 169 22
	movdqu	xmm0, xmmword ptr [rdi + 4*rcx + 16]
	.loc	4 169 13
	paddd	xmm0, xmm1
	.loc	4 169 22
	movdqu	xmm1, xmmword ptr [rdi + 4*rcx + 32]
	movdqu	xmm3, xmmword ptr [rdi + 4*rcx + 48]
	movdqu	xmm4, xmmword ptr [rdi + 4*rcx + 64]
	.loc	4 169 13
	paddd	xmm4, xmm1
	paddd	xmm4, xmm2
	.loc	4 169 22
	movdqu	xmm2, xmmword ptr [rdi + 4*rcx + 80]
	.loc	4 169 13
	paddd	xmm2, xmm3
	paddd	xmm2, xmm0
	.loc	4 169 22
	movdqu	xmm0, xmmword ptr [rdi + 4*rcx + 96]
	.loc	4 169 13
	paddd	xmm0, xmm4
	.loc	4 169 22
	movdqu	xmm1, xmmword ptr [rdi + 4*rcx + 112]
	.loc	4 169 13
	paddd	xmm1, xmm2
	add	rcx, 32
	add	rdx, 4
	jne	.LBB16_7
.Ltmp567:
.LBB16_8:
	.loc	4 0 13
	test	rax, rax
	je	.LBB16_11
.Ltmp568:
	lea	rcx, [rdi + 4*rcx]
	add	rcx, 16
	shl	rax, 5
	xor	edx, edx
.Ltmp569:
	.p2align	4, 0x90
.LBB16_10:
	.loc	4 169 22
	movdqu	xmm2, xmmword ptr [rcx + rdx - 16]
	.loc	4 169 13
	paddd	xmm0, xmm2
	.loc	4 169 22
	movdqu	xmm2, xmmword ptr [rcx + rdx]
	.loc	4 169 13
	paddd	xmm1, xmm2
	add	rdx, 32
	cmp	rax, rdx
	jne	.LBB16_10
.Ltmp570:
.LBB16_11:
	.loc	10 146 21 is_stmt 1
	paddd	xmm0, xmm1
	pshufd	xmm1, xmm0, 238
	paddd	xmm1, xmm0
	pshufd	xmm0, xmm1, 85
	paddd	xmm0, xmm1
	movd	eax, xmm0
	cmp	r9, r8
	je	.LBB16_15
.Ltmp571:
	.loc	10 0 21 is_stmt 0
	lea	rcx, [rdi + 4*r8]
.Ltmp572:
.LBB16_13:
	.loc	10 146 21
	lea	rdx, [rdi + 4*rsi]
.Ltmp573:
	.p2align	4, 0x90
.LBB16_14:
	.loc	4 169 13 is_stmt 1
	add	eax, dword ptr [rcx]
.Ltmp574:
	.loc	4 0 13 is_stmt 0
	add	rcx, 4
.Ltmp575:
	.loc	10 146 24 is_stmt 1
	cmp	rdx, rcx
	.loc	10 146 21 is_stmt 0
	jne	.LBB16_14
.Ltmp576:
.LBB16_15:
	.loc	4 52 9 is_stmt 1
	mov	r10d, esi
	neg	r10d
	cmovl	r10d, esi
.Ltmp577:
	.loc	4 14 9
	mov	edi, eax
.Ltmp578:
	neg	edi
	mov	ecx, eax
	cmovge	ecx, edi
.Ltmp579:
	.loc	4 52 12
	test	esi, esi
	.loc	4 52 9 is_stmt 0
	cmovns	edi, eax
.Ltmp580:
	.loc	4 66 9 is_stmt 1
	test	edi, edi
.Ltmp581:
	.loc	4 0 9 is_stmt 0
	mov	r8d, 1
	.loc	4 66 9
	cmove	r10d, r8d
.Ltmp582:
	.loc	4 14 9 is_stmt 1
	mov	esi, r10d
.Ltmp583:
	neg	esi
	cmovl	esi, r10d
.Ltmp584:
	.loc	4 24 26
	cmp	ecx, esi
	.loc	4 24 23 is_stmt 0
	cmovg	esi, ecx
.Ltmp585:
	.loc	5 540 9 is_stmt 1
	test	esi, esi
.Ltmp586:
	.loc	6 775 9
	jle	.LBB16_35
.Ltmp587:
	.loc	6 0 9 is_stmt 0
	cmp	edi, -2147483648
	.loc	6 775 9
	je	.LBB16_17
.Ltmp588:
	.loc	6 0 9
	cmp	r10d, -2147483648
	.loc	6 775 9
	je	.LBB16_26
.Ltmp589:
	.p2align	4, 0x90
.LBB16_30:
	.loc	7 1259 52 is_stmt 1
	xor	ecx, ecx
	cmp	esi, 1
	setg	r9b
.Ltmp590:
	.loc	4 31 16
	mov	eax, edi
	cdq
	idiv	esi
	test	edx, edx
	jne	.LBB16_31
.Ltmp591:
	.loc	4 31 30 is_stmt 0
	mov	eax, r10d
	cdq
	idiv	esi
	.loc	4 31 16
	test	edx, edx
	je	.LBB16_34
.Ltmp592:
.LBB16_31:
	.loc	7 1259 52 is_stmt 1
	cmp	esi, 2
.Ltmp593:
	.loc	6 775 9
	jl	.LBB16_35
.Ltmp594:
	.loc	6 0 0 is_stmt 0
	mov	cl, r9b
	sub	esi, ecx
.Ltmp595:
	.loc	6 775 9
	test	esi, esi
	jg	.LBB16_30
	jmp	.LBB16_35
.Ltmp596:
.LBB16_29:
	.loc	6 0 0
	mov	r9b, cl
	sub	esi, r9d
.Ltmp597:
	.loc	6 775 9
	test	esi, esi
	jle	.LBB16_35
.Ltmp598:
.LBB16_26:
	.loc	7 1259 52 is_stmt 1
	xor	r9d, r9d
	cmp	esi, 1
	setg	cl
.Ltmp599:
	.loc	4 31 16
	mov	eax, edi
	cdq
	idiv	esi
	test	edx, edx
	jne	.LBB16_28
.Ltmp600:
	.loc	4 31 30 is_stmt 0
	mov	eax, -2147483648
	xor	edx, edx
	div	esi
	.loc	4 31 16
	test	edx, edx
	je	.LBB16_34
.Ltmp601:
.LBB16_28:
	.loc	7 1259 52 is_stmt 1
	cmp	esi, 2
.Ltmp602:
	.loc	7 0 52 is_stmt 0
	jge	.LBB16_29
	jmp	.LBB16_35
.Ltmp603:
.LBB16_17:
	cmp	r10d, -2147483648
	.loc	6 775 9 is_stmt 1
	je	.LBB16_18
.Ltmp604:
.LBB16_21:
	.loc	7 1259 52
	xor	r9d, r9d
	cmp	esi, 1
	setg	cl
.Ltmp605:
	.loc	4 31 16
	mov	eax, -2147483648
	xor	edx, edx
	div	esi
	test	edx, edx
	jne	.LBB16_23
.Ltmp606:
	.loc	4 31 30 is_stmt 0
	mov	eax, r10d
	cdq
	idiv	esi
	.loc	4 31 16
	test	edx, edx
	je	.LBB16_34
.Ltmp607:
.LBB16_23:
	.loc	7 1259 52 is_stmt 1
	cmp	esi, 2
.Ltmp608:
	.loc	6 775 9
	jl	.LBB16_35
.Ltmp609:
	.loc	6 0 0 is_stmt 0
	mov	r9b, cl
	sub	esi, r9d
.Ltmp610:
	.loc	6 775 9
	test	esi, esi
	jg	.LBB16_21
	jmp	.LBB16_35
.Ltmp611:
.LBB16_19:
	.loc	7 1259 52 is_stmt 1
	cmp	esi, 2
.Ltmp612:
	.loc	6 775 9
	jl	.LBB16_35
.Ltmp613:
	.loc	6 0 0 is_stmt 0
	mov	cl, r9b
	sub	esi, ecx
.Ltmp614:
	.loc	6 775 9
	test	esi, esi
	jle	.LBB16_35
.Ltmp615:
.LBB16_18:
	.loc	7 1259 52 is_stmt 1
	xor	ecx, ecx
	cmp	esi, 1
	setg	r9b
.Ltmp616:
	.loc	4 31 16
	mov	eax, -2147483648
	xor	edx, edx
	div	esi
	test	edx, edx
	jne	.LBB16_19
.Ltmp617:
.LBB16_34:
	.loc	4 0 0 is_stmt 0
	mov	r8d, esi
.Ltmp618:
.LBB16_35:
	.loc	4 72 9 is_stmt 1
	mov	eax, edi
	cdq
	idiv	r8d
	mov	esi, eax
.Ltmp619:
	.loc	4 73 9
	mov	eax, r10d
	cdq
	idiv	r8d
	mov	edx, eax
.Ltmp620:
	.loc	4 175 6
	mov	eax, esi
	ret
.Ltmp621:
.Lfunc_end16:
	.size	_ZN67_$LT$fractions..Fraction$u20$as$u20$fractions..FractionAverages$GT$11avg_of_ints17h7f3abdf351531574E, .Lfunc_end16-_ZN67_$LT$fractions..Fraction$u20$as$u20$fractions..FractionAverages$GT$11avg_of_ints17h7f3abdf351531574E
	.cfi_endproc

	.section	".text._ZN56_$LT$fractions..Fraction$u20$as$u20$core..fmt..Debug$GT$3fmt17h0e8a4afa51a2da23E","ax",@progbits
	.globl	_ZN56_$LT$fractions..Fraction$u20$as$u20$core..fmt..Debug$GT$3fmt17h0e8a4afa51a2da23E
	.p2align	4, 0x90
	.type	_ZN56_$LT$fractions..Fraction$u20$as$u20$core..fmt..Debug$GT$3fmt17h0e8a4afa51a2da23E,@function
_ZN56_$LT$fractions..Fraction$u20$as$u20$core..fmt..Debug$GT$3fmt17h0e8a4afa51a2da23E:
.Lfunc_begin17:
	.loc	4 44 0
	.cfi_startproc
	push	r15
	.cfi_def_cfa_offset 16
	push	r14
	.cfi_def_cfa_offset 24
	push	r12
	.cfi_def_cfa_offset 32
	push	rbx
	.cfi_def_cfa_offset 40
	sub	rsp, 24
	.cfi_def_cfa_offset 64
	.cfi_offset rbx, -40
	.cfi_offset r12, -32
	.cfi_offset r14, -24
	.cfi_offset r15, -16
	mov	rax, rsi
	mov	rbx, rdi
.Ltmp622:
	.loc	4 47 5 prologue_end
	lea	r15, [rdi + 4]
.Ltmp623:
	.loc	4 44 10
	lea	rsi, [rip + .L__unnamed_6]
	mov	edx, 8
	mov	rdi, rax
.Ltmp624:
	call	qword ptr [rip + _ZN4core3fmt9Formatter12debug_struct17h6788a82ff4de2bfaE@GOTPCREL]
.Ltmp625:
	mov	qword ptr [rsp + 16], rdx
	mov	qword ptr [rsp + 8], rax
.Ltmp626:
	.loc	4 46 5
	mov	qword ptr [rsp], rbx
	.loc	4 44 10
	lea	rsi, [rip + .L__unnamed_7]
	lea	r14, [rip + .L__unnamed_1]
	mov	r12, qword ptr [rip + _ZN4core3fmt8builders11DebugStruct5field17hb056b470ea9353f2E@GOTPCREL]
	lea	rbx, [rsp + 8]
.Ltmp627:
	.loc	4 0 10 is_stmt 0
	mov	rcx, rsp
	.loc	4 44 10
	mov	edx, 9
	mov	rdi, rbx
	mov	r8, r14
	call	r12
	.loc	4 47 5 is_stmt 1
	mov	qword ptr [rsp], r15
	.loc	4 44 10
	lea	rsi, [rip + .L__unnamed_8]
	mov	rcx, rsp
	mov	edx, 11
	mov	rdi, rbx
	mov	r8, r14
	call	r12
	mov	rdi, rbx
	call	qword ptr [rip + _ZN4core3fmt8builders11DebugStruct6finish17h0369807cbdea982dE@GOTPCREL]
.Ltmp628:
	.loc	4 44 15 is_stmt 0
	add	rsp, 24
	.cfi_def_cfa_offset 40
	pop	rbx
	.cfi_def_cfa_offset 32
	pop	r12
	.cfi_def_cfa_offset 24
	pop	r14
	.cfi_def_cfa_offset 16
	pop	r15
.Ltmp629:
	.cfi_def_cfa_offset 8
	ret
.Ltmp630:
.Lfunc_end17:
	.size	_ZN56_$LT$fractions..Fraction$u20$as$u20$core..fmt..Debug$GT$3fmt17h0e8a4afa51a2da23E, .Lfunc_end17-_ZN56_$LT$fractions..Fraction$u20$as$u20$core..fmt..Debug$GT$3fmt17h0e8a4afa51a2da23E
	.cfi_endproc

	.type	.L__unnamed_9,@object
	.section	.rodata..L__unnamed_9,"a",@progbits
.L__unnamed_9:
	.ascii	"src/lib.rs"
	.size	.L__unnamed_9, 10

	.type	str.2,@object
	.section	.rodata.str.2,"a",@progbits
	.p2align	4
str.2:
	.ascii	"attempt to divide by zero"
	.size	str.2, 25

	.type	str.3,@object
	.section	.rodata.str.3,"a",@progbits
	.p2align	4
str.3:
	.ascii	"attempt to divide with overflow"
	.size	str.3, 31

	.type	.L__unnamed_2,@object
	.section	.data.rel.ro..L__unnamed_2,"aw",@progbits
	.p2align	3
.L__unnamed_2:
	.quad	.L__unnamed_9
	.asciz	"\n\000\000\000\000\000\000\000O\000\000\000\035\000\000"
	.size	.L__unnamed_2, 24

	.type	.L__unnamed_3,@object
	.section	.data.rel.ro..L__unnamed_3,"aw",@progbits
	.p2align	3
.L__unnamed_3:
	.quad	.L__unnamed_9
	.asciz	"\n\000\000\000\000\000\000\000P\000\000\000\035\000\000"
	.size	.L__unnamed_3, 24

	.type	.L__unnamed_4,@object
	.section	.data.rel.ro..L__unnamed_4,"aw",@progbits
	.p2align	3
.L__unnamed_4:
	.quad	.L__unnamed_9
	.asciz	"\n\000\000\000\000\000\000\000\\\000\000\000!\000\000"
	.size	.L__unnamed_4, 24

	.type	.L__unnamed_5,@object
	.section	.data.rel.ro..L__unnamed_5,"aw",@progbits
	.p2align	3
.L__unnamed_5:
	.quad	.L__unnamed_9
	.asciz	"\n\000\000\000\000\000\000\000]\000\000\000\036\000\000"
	.size	.L__unnamed_5, 24

	.type	.L__unnamed_6,@object
	.section	.rodata.cst8,"aM",@progbits,8
.L__unnamed_6:
	.ascii	"Fraction"
	.size	.L__unnamed_6, 8

	.type	.L__unnamed_7,@object
	.section	.rodata..L__unnamed_7,"a",@progbits
.L__unnamed_7:
	.ascii	"numerator"
	.size	.L__unnamed_7, 9

	.type	.L__unnamed_1,@object
	.section	.data.rel.ro..L__unnamed_1,"aw",@progbits
	.p2align	3
.L__unnamed_1:
	.quad	_ZN4core3ptr28drop_in_place$LT$$RF$i32$GT$17hb3d527d0fdf24842E
	.quad	8
	.quad	8
	.quad	_ZN42_$LT$$RF$T$u20$as$u20$core..fmt..Debug$GT$3fmt17h97d18b71227da53dE
	.size	.L__unnamed_1, 32

	.type	.L__unnamed_8,@object
	.section	.rodata..L__unnamed_8,"a",@progbits
.L__unnamed_8:
	.ascii	"denominator"
	.size	.L__unnamed_8, 11

	.section	.data.rel.ro..L__unnamed_1,"aw",@progbits
.Lsec_end0:
	.section	".text._ZN42_$LT$$RF$T$u20$as$u20$core..fmt..Debug$GT$3fmt17h97d18b71227da53dE","ax",@progbits
.Lsec_end1:
	.section	".text._ZN4core3ptr28drop_in_place$LT$$RF$i32$GT$17hb3d527d0fdf24842E","ax",@progbits
.Lsec_end2:
	.section	".text._ZN48_$LT$i32$u20$as$u20$fractions..AbsoluteValue$GT$7abs_val17hcc401eaf841a449dE","ax",@progbits
.Lsec_end3:
	.section	".text._ZN46_$LT$i32$u20$as$u20$fractions..CommonValue$GT$22greatest_common_factor17h29cd2da29b197999E","ax",@progbits
.Lsec_end4:
	.section	".text._ZN46_$LT$i32$u20$as$u20$fractions..CommonValue$GT$21least_common_multiple17h1b0f4ac8414748f2E","ax",@progbits
.Lsec_end5:
	.section	.text._ZN9fractions8Fraction3new17h6e8330e89f93c79eE,"ax",@progbits
.Lsec_end6:
	.section	.text._ZN9fractions8Fraction11reduce_form17h71eb62d0ad04c55fE,"ax",@progbits
.Lsec_end7:
	.section	.text._ZN9fractions8Fraction3add17h6dec614af4ab4530E,"ax",@progbits
.Lsec_end8:
	.section	.text._ZN9fractions8Fraction3sub17h80d2a905cd9d14feE,"ax",@progbits
.Lsec_end9:
	.section	.text._ZN9fractions8Fraction3mul17hb85e0a8b31fdddefE,"ax",@progbits
.Lsec_end10:
	.section	.text._ZN9fractions8Fraction3div17hd71c093c684e6753E,"ax",@progbits
.Lsec_end11:
	.section	.text._ZN9fractions8Fraction10to_decimal17hd6f69bd3edb278bcE,"ax",@progbits
.Lsec_end12:
	.section	.text._ZN9fractions8Fraction3sqr17h81a3fb6ebb427aedE,"ax",@progbits
.Lsec_end13:
	.section	.text._ZN9fractions8Fraction3avg17h7335913fecf4998fE,"ax",@progbits
.Lsec_end14:
	.section	.text._ZN9fractions8Fraction15set_denominator17h9ed704c8d09cb8efE,"ax",@progbits
.Lsec_end15:
	.section	".text._ZN67_$LT$fractions..Fraction$u20$as$u20$fractions..FractionAverages$GT$16avg_of_fractions17h8151d00163b8825cE","ax",@progbits
.Lsec_end16:
	.section	".text._ZN67_$LT$fractions..Fraction$u20$as$u20$fractions..FractionAverages$GT$11avg_of_ints17h7f3abdf351531574E","ax",@progbits
.Lsec_end17:
	.section	".text._ZN56_$LT$fractions..Fraction$u20$as$u20$core..fmt..Debug$GT$3fmt17h0e8a4afa51a2da23E","ax",@progbits
.Lsec_end18:
	.section	".note.GNU-stack","",@progbits